ARM GAS  /tmp/cc9jWV1l.s 			page 1


   1              		.syntax unified
   2              		.cpu cortex-m3
   3              		.fpu softvfp
   4              		.eabi_attribute 20, 1
   5              		.eabi_attribute 21, 1
   6              		.eabi_attribute 23, 3
   7              		.eabi_attribute 24, 1
   8              		.eabi_attribute 25, 1
   9              		.eabi_attribute 26, 1
  10              		.eabi_attribute 30, 2
  11              		.eabi_attribute 34, 1
  12              		.eabi_attribute 18, 4
  13              		.thumb
  14              		.file	"main.cpp"
  15              		.text
  16              	.Ltext0:
  17              		.cfi_sections	.debug_frame
  18              		.section	.text._Z7I2CInitv,"ax",%progbits
  19              		.align	2
  20              		.p2align 4,,15
  21              		.global	_Z7I2CInitv
  22              		.thumb
  23              		.thumb_func
  24              		.type	_Z7I2CInitv, %function
  25              	_Z7I2CInitv:
  26              		.fnstart
  27              	.LFB36:
  28              		.file 1 "main.cpp"
  29              		.loc 1 31 0
  30              		.cfi_startproc
  31              		@ args = 0, pretend = 0, frame = 0
  32              		@ frame_needed = 0, uses_anonymous_args = 0
  33 0000 10B5     		push	{r4, lr}
  34              		.save {r4, lr}
  35              		.cfi_def_cfa_offset 8
  36              		.cfi_offset 4, -8
  37              		.cfi_offset 14, -4
  38              	.LBB2:
  39              	.LBB3:
  40              		.loc 1 33 0
  41 0002 2023     		movs	r3, #32
  42              	@ 33 "main.cpp" 1
  43 0004 83F31188 		msr     BASEPRI, r3
  44              	@ 0 "" 2
  45              		.thumb
  46              	.LBE3:
  47              		.loc 1 34 0
  48 0008 0221     		movs	r1, #2
  49 000a 0D48     		ldr	r0, .L3
  50 000c FFF7FEFF 		bl	PIO_Configure
  51              	.LVL0:
  52              		.loc 1 38 0
  53 0010 0C4C     		ldr	r4, .L3+4
  54              		.loc 1 35 0
  55 0012 0D4B     		ldr	r3, .L3+8
  56 0014 0D48     		ldr	r0, .L3+12
  57              		.loc 1 37 0
ARM GAS  /tmp/cc9jWV1l.s 			page 2


  58 0016 0E4A     		ldr	r2, .L3+16
  59              		.loc 1 36 0
  60 0018 4FF40021 		mov	r1, #524288
  61              		.loc 1 35 0
  62 001c C3F8E400 		str	r0, [r3, #228]
  63              		.loc 1 36 0
  64 0020 1961     		str	r1, [r3, #16]
  65              		.loc 1 38 0
  66 0022 2046     		mov	r0, r4
  67              		.loc 1 37 0
  68 0024 C3F8E420 		str	r2, [r3, #228]
  69              		.loc 1 38 0
  70 0028 0A49     		ldr	r1, .L3+20
  71 002a 0B4A     		ldr	r2, .L3+24
  72 002c FFF7FEFF 		bl	TWI_ConfigureMaster
  73              	.LVL1:
  74              		.loc 1 39 0
  75 0030 2146     		mov	r1, r4
  76 0032 0A48     		ldr	r0, .L3+28
  77 0034 FFF7FEFF 		bl	TWID_Initialize
  78              	.LVL2:
  79              	.LBB4:
  80              		.loc 1 40 0
  81 0038 0023     		movs	r3, #0
  82              	@ 40 "main.cpp" 1
  83 003a 83F31188 		msr     BASEPRI, r3
  84              	@ 0 "" 2
  85              		.thumb
  86 003e 10BD     		pop	{r4, pc}
  87              	.L4:
  88              		.align	2
  89              	.L3:
  90 0040 00000000 		.word	.LANCHOR0
  91 0044 00800140 		.word	1073840128
  92 0048 00040E40 		.word	1074660352
  93 004c 00434D50 		.word	1347240704
  94 0050 01434D50 		.word	1347240705
  95 0054 801A0600 		.word	400000
  96 0058 0090D003 		.word	64000000
  97 005c 00000000 		.word	.LANCHOR1
  98              	.LBE4:
  99              	.LBE2:
 100              		.cfi_endproc
 101              	.LFE36:
 102              		.fnend
 103              		.size	_Z7I2CInitv, .-_Z7I2CInitv
 104              		.section	.text._Z15I2CReadByte_subhh,"ax",%progbits
 105              		.align	2
 106              		.p2align 4,,15
 107              		.global	_Z15I2CReadByte_subhh
 108              		.thumb
 109              		.thumb_func
 110              		.type	_Z15I2CReadByte_subhh, %function
 111              	_Z15I2CReadByte_subhh:
 112              		.fnstart
 113              	.LFB37:
 114              		.loc 1 43 0
ARM GAS  /tmp/cc9jWV1l.s 			page 3


 115              		.cfi_startproc
 116              		@ args = 0, pretend = 0, frame = 8
 117              		@ frame_needed = 0, uses_anonymous_args = 0
 118              	.LVL3:
 119 0000 70B5     		push	{r4, r5, r6, lr}
 120              		.save {r4, r5, r6, lr}
 121              		.cfi_def_cfa_offset 16
 122              		.cfi_offset 4, -16
 123              		.cfi_offset 5, -12
 124              		.cfi_offset 6, -8
 125              		.cfi_offset 14, -4
 126 0002 0A46     		mov	r2, r1
 127              		.pad #24
 128 0004 86B0     		sub	sp, sp, #24
 129              		.cfi_def_cfa_offset 40
 130              	.LBB5:
 131              	.LBB6:
 132              		.loc 1 45 0
 133 0006 2023     		movs	r3, #32
 134              	@ 45 "main.cpp" 1
 135 0008 83F31188 		msr     BASEPRI, r3
 136              	@ 0 "" 2
 137              		.thumb
 138              	.LBE6:
 139              		.loc 1 49 0
 140 000c 0024     		movs	r4, #0
 141 000e 0DF11705 		add	r5, sp, #23
 142 0012 0123     		movs	r3, #1
 143 0014 0146     		mov	r1, r0
 144              	.LVL4:
 145 0016 0095     		str	r5, [sp]
 146 0018 0294     		str	r4, [sp, #8]
 147 001a 0193     		str	r3, [sp, #4]
 148 001c 0548     		ldr	r0, .L9
 149              	.LVL5:
 150 001e FFF7FEFF 		bl	TWID_Read
 151              	.LVL6:
 152 0022 08B9     		cbnz	r0, .L6
 153              		.loc 1 49 0 is_stmt 0 discriminator 2
 154 0024 9DF81760 		ldrb	r6, [sp, #23]	@ zero_extendqisi2
 155              	.LVL7:
 156              	.L6:
 157              	.LBB7:
 158              		.loc 1 50 0 is_stmt 1
 159 0028 0023     		movs	r3, #0
 160              	@ 50 "main.cpp" 1
 161 002a 83F31188 		msr     BASEPRI, r3
 162              	@ 0 "" 2
 163              		.thumb
 164              	.LBE7:
 165              	.LBE5:
 166              		.loc 1 52 0
 167 002e 3046     		mov	r0, r6
 168 0030 06B0     		add	sp, sp, #24
 169              		.cfi_def_cfa_offset 16
 170              		@ sp needed
 171 0032 70BD     		pop	{r4, r5, r6, pc}
ARM GAS  /tmp/cc9jWV1l.s 			page 4


 172              	.LVL8:
 173              	.L10:
 174              		.align	2
 175              	.L9:
 176 0034 00000000 		.word	.LANCHOR1
 177              		.cfi_endproc
 178              	.LFE37:
 179              		.fnend
 180              		.size	_Z15I2CReadByte_subhh, .-_Z15I2CReadByte_subhh
 181              		.section	.text._Z12I2CWriteBytehh,"ax",%progbits
 182              		.align	2
 183              		.p2align 4,,15
 184              		.global	_Z12I2CWriteBytehh
 185              		.thumb
 186              		.thumb_func
 187              		.type	_Z12I2CWriteBytehh, %function
 188              	_Z12I2CWriteBytehh:
 189              		.fnstart
 190              	.LFB38:
 191              		.loc 1 54 0
 192              		.cfi_startproc
 193              		@ args = 0, pretend = 0, frame = 8
 194              		@ frame_needed = 0, uses_anonymous_args = 0
 195              	.LVL9:
 196 0000 10B5     		push	{r4, lr}
 197              		.save {r4, lr}
 198              		.cfi_def_cfa_offset 8
 199              		.cfi_offset 4, -8
 200              		.cfi_offset 14, -4
 201              		.pad #24
 202 0002 86B0     		sub	sp, sp, #24
 203              		.cfi_def_cfa_offset 32
 204              		.loc 1 54 0
 205 0004 06AA     		add	r2, sp, #24
 206 0006 02F8011D 		strb	r1, [r2, #-1]!
 207              	.LBB8:
 208              	.LBB9:
 209              		.loc 1 56 0
 210 000a 2023     		movs	r3, #32
 211              	@ 56 "main.cpp" 1
 212 000c 83F31188 		msr     BASEPRI, r3
 213              	@ 0 "" 2
 214              		.thumb
 215              	.LBE9:
 216              		.loc 1 57 0
 217 0010 0024     		movs	r4, #0
 218 0012 0123     		movs	r3, #1
 219 0014 0092     		str	r2, [sp]
 220 0016 0146     		mov	r1, r0
 221              	.LVL10:
 222 0018 0193     		str	r3, [sp, #4]
 223 001a 0294     		str	r4, [sp, #8]
 224 001c 2346     		mov	r3, r4
 225 001e 2246     		mov	r2, r4
 226              	.LVL11:
 227 0020 0348     		ldr	r0, .L13
 228              	.LVL12:
ARM GAS  /tmp/cc9jWV1l.s 			page 5


 229 0022 FFF7FEFF 		bl	TWID_Write
 230              	.LVL13:
 231              	.LBB10:
 232              		.loc 1 58 0
 233 0026 2346     		mov	r3, r4
 234              	@ 58 "main.cpp" 1
 235 0028 83F31188 		msr     BASEPRI, r3
 236              	@ 0 "" 2
 237              		.thumb
 238              	.LBE10:
 239              	.LBE8:
 240              		.loc 1 59 0
 241 002c 06B0     		add	sp, sp, #24
 242              		.cfi_def_cfa_offset 8
 243              	.LVL14:
 244              		@ sp needed
 245 002e 10BD     		pop	{r4, pc}
 246              	.LVL15:
 247              	.L14:
 248              		.align	2
 249              	.L13:
 250 0030 00000000 		.word	.LANCHOR1
 251              		.cfi_endproc
 252              	.LFE38:
 253              		.fnend
 254              		.size	_Z12I2CWriteBytehh, .-_Z12I2CWriteBytehh
 255              		.section	.text._Z11I2CReadByteh,"ax",%progbits
 256              		.align	2
 257              		.p2align 4,,15
 258              		.global	_Z11I2CReadByteh
 259              		.thumb
 260              		.thumb_func
 261              		.type	_Z11I2CReadByteh, %function
 262              	_Z11I2CReadByteh:
 263              		.fnstart
 264              	.LFB39:
 265              		.loc 1 61 0
 266              		.cfi_startproc
 267              		@ args = 0, pretend = 0, frame = 8
 268              		@ frame_needed = 0, uses_anonymous_args = 0
 269              	.LVL16:
 270 0000 30B5     		push	{r4, r5, lr}
 271              		.save {r4, r5, lr}
 272              		.cfi_def_cfa_offset 12
 273              		.cfi_offset 4, -12
 274              		.cfi_offset 5, -8
 275              		.cfi_offset 14, -4
 276 0002 0146     		mov	r1, r0
 277              		.pad #28
 278 0004 87B0     		sub	sp, sp, #28
 279              		.cfi_def_cfa_offset 40
 280              	.LBB11:
 281              	.LBB12:
 282              		.loc 1 63 0
 283 0006 2023     		movs	r3, #32
 284              	@ 63 "main.cpp" 1
 285 0008 83F31188 		msr     BASEPRI, r3
ARM GAS  /tmp/cc9jWV1l.s 			page 6


 286              	@ 0 "" 2
 287              		.thumb
 288              	.LBE12:
 289              		.loc 1 67 0
 290 000c 0123     		movs	r3, #1
 291 000e 0022     		movs	r2, #0
 292 0010 0DF11704 		add	r4, sp, #23
 293 0014 0193     		str	r3, [sp, #4]
 294 0016 0094     		str	r4, [sp]
 295 0018 0292     		str	r2, [sp, #8]
 296 001a 1346     		mov	r3, r2
 297 001c 0548     		ldr	r0, .L18
 298              	.LVL17:
 299 001e FFF7FEFF 		bl	TWID_Read
 300              	.LVL18:
 301 0022 08B9     		cbnz	r0, .L16
 302              		.loc 1 67 0 is_stmt 0 discriminator 2
 303 0024 9DF81750 		ldrb	r5, [sp, #23]	@ zero_extendqisi2
 304              	.LVL19:
 305              	.L16:
 306              	.LBB13:
 307              		.loc 1 68 0 is_stmt 1
 308 0028 0023     		movs	r3, #0
 309              	@ 68 "main.cpp" 1
 310 002a 83F31188 		msr     BASEPRI, r3
 311              	@ 0 "" 2
 312              		.thumb
 313              	.LBE13:
 314              	.LBE11:
 315              		.loc 1 70 0
 316 002e 2846     		mov	r0, r5
 317 0030 07B0     		add	sp, sp, #28
 318              		.cfi_def_cfa_offset 12
 319              		@ sp needed
 320 0032 30BD     		pop	{r4, r5, pc}
 321              	.LVL20:
 322              	.L19:
 323              		.align	2
 324              	.L18:
 325 0034 00000000 		.word	.LANCHOR1
 326              		.cfi_endproc
 327              	.LFE39:
 328              		.fnend
 329              		.size	_Z11I2CReadByteh, .-_Z11I2CReadByteh
 330              		.section	.text._Z13I2CWriteByteshhh,"ax",%progbits
 331              		.align	2
 332              		.p2align 4,,15
 333              		.global	_Z13I2CWriteByteshhh
 334              		.thumb
 335              		.thumb_func
 336              		.type	_Z13I2CWriteByteshhh, %function
 337              	_Z13I2CWriteByteshhh:
 338              		.fnstart
 339              	.LFB40:
 340              		.loc 1 72 0
 341              		.cfi_startproc
 342              		@ args = 0, pretend = 0, frame = 8
ARM GAS  /tmp/cc9jWV1l.s 			page 7


 343              		@ frame_needed = 0, uses_anonymous_args = 0
 344              	.LVL21:
 345 0000 70B5     		push	{r4, r5, r6, lr}
 346              		.save {r4, r5, r6, lr}
 347              		.cfi_def_cfa_offset 16
 348              		.cfi_offset 4, -16
 349              		.cfi_offset 5, -12
 350              		.cfi_offset 6, -8
 351              		.cfi_offset 14, -4
 352              		.pad #24
 353 0002 86B0     		sub	sp, sp, #24
 354              		.cfi_def_cfa_offset 40
 355              		.loc 1 72 0
 356 0004 06AC     		add	r4, sp, #24
 357 0006 0E46     		mov	r6, r1
 358 0008 04F8012D 		strb	r2, [r4, #-1]!
 359              	.LBB14:
 360              	.LBB15:
 361              		.loc 1 74 0
 362 000c 2023     		movs	r3, #32
 363              	@ 74 "main.cpp" 1
 364 000e 83F31188 		msr     BASEPRI, r3
 365              	@ 0 "" 2
 366              		.thumb
 367              	.LBE15:
 368              		.loc 1 75 0
 369 0012 0123     		movs	r3, #1
 370 0014 0025     		movs	r5, #0
 371 0016 0146     		mov	r1, r0
 372              	.LVL22:
 373 0018 0193     		str	r3, [sp, #4]
 374 001a 0094     		str	r4, [sp]
 375 001c 3246     		mov	r2, r6
 376              	.LVL23:
 377 001e 0295     		str	r5, [sp, #8]
 378 0020 0348     		ldr	r0, .L22
 379              	.LVL24:
 380 0022 FFF7FEFF 		bl	TWID_Write
 381              	.LVL25:
 382              	.LBB16:
 383              		.loc 1 76 0
 384 0026 2B46     		mov	r3, r5
 385              	@ 76 "main.cpp" 1
 386 0028 83F31188 		msr     BASEPRI, r3
 387              	@ 0 "" 2
 388              		.thumb
 389              	.LBE16:
 390              	.LBE14:
 391              		.loc 1 77 0
 392 002c 06B0     		add	sp, sp, #24
 393              		.cfi_def_cfa_offset 16
 394              		@ sp needed
 395 002e 70BD     		pop	{r4, r5, r6, pc}
 396              	.LVL26:
 397              	.L23:
 398              		.align	2
 399              	.L22:
ARM GAS  /tmp/cc9jWV1l.s 			page 8


 400 0030 00000000 		.word	.LANCHOR1
 401              		.cfi_endproc
 402              	.LFE40:
 403              		.fnend
 404              		.size	_Z13I2CWriteByteshhh, .-_Z13I2CWriteByteshhh
 405              		.section	.text._Z12I2CReadByteshhPhh,"ax",%progbits
 406              		.align	2
 407              		.p2align 4,,15
 408              		.global	_Z12I2CReadByteshhPhh
 409              		.thumb
 410              		.thumb_func
 411              		.type	_Z12I2CReadByteshhPhh, %function
 412              	_Z12I2CReadByteshhPhh:
 413              		.fnstart
 414              	.LFB41:
 415              		.loc 1 81 0
 416              		.cfi_startproc
 417              		@ args = 0, pretend = 0, frame = 0
 418              		@ frame_needed = 0, uses_anonymous_args = 0
 419              	.LVL27:
 420 0000 70B5     		push	{r4, r5, r6, lr}
 421              		.save {r4, r5, r6, lr}
 422              		.cfi_def_cfa_offset 16
 423              		.cfi_offset 4, -16
 424              		.cfi_offset 5, -12
 425              		.cfi_offset 6, -8
 426              		.cfi_offset 14, -4
 427 0002 1C46     		mov	r4, r3
 428              		.pad #16
 429 0004 84B0     		sub	sp, sp, #16
 430              		.cfi_def_cfa_offset 32
 431              		.loc 1 81 0
 432 0006 0E46     		mov	r6, r1
 433              	.LBB17:
 434              	.LBB18:
 435              		.loc 1 82 0
 436 0008 2023     		movs	r3, #32
 437              	.LVL28:
 438              	@ 82 "main.cpp" 1
 439 000a 83F31188 		msr     BASEPRI, r3
 440              	@ 0 "" 2
 441              	.LVL29:
 442              		.thumb
 443              	.LBE18:
 444              		.loc 1 85 0
 445 000e 0025     		movs	r5, #0
 446 0010 8DE81400 		stmia	sp, {r2, r4}
 447 0014 0146     		mov	r1, r0
 448              	.LVL30:
 449 0016 3246     		mov	r2, r6
 450              	.LVL31:
 451 0018 0295     		str	r5, [sp, #8]
 452 001a 0123     		movs	r3, #1
 453 001c 0548     		ldr	r0, .L28
 454              	.LVL32:
 455 001e FFF7FEFF 		bl	TWID_Read
 456              	.LVL33:
ARM GAS  /tmp/cc9jWV1l.s 			page 9


 457 0022 A842     		cmp	r0, r5
 458              		.loc 1 83 0
 459 0024 18BF     		it	ne
 460 0026 2C46     		movne	r4, r5
 461              	.LVL34:
 462              	.LBB19:
 463              		.loc 1 88 0
 464 0028 2B46     		mov	r3, r5
 465              	@ 88 "main.cpp" 1
 466 002a 83F31188 		msr     BASEPRI, r3
 467              	@ 0 "" 2
 468              		.thumb
 469              	.LBE19:
 470              	.LBE17:
 471              		.loc 1 90 0
 472 002e 2046     		mov	r0, r4
 473 0030 04B0     		add	sp, sp, #16
 474              		.cfi_def_cfa_offset 16
 475              		@ sp needed
 476 0032 70BD     		pop	{r4, r5, r6, pc}
 477              	.LVL35:
 478              	.L29:
 479              		.align	2
 480              	.L28:
 481 0034 00000000 		.word	.LANCHOR1
 482              		.cfi_endproc
 483              	.LFE41:
 484              		.fnend
 485              		.size	_Z12I2CReadByteshhPhh, .-_Z12I2CReadByteshhPhh
 486              		.section	.text._ZL7Thread1Pv,"ax",%progbits
 487              		.align	2
 488              		.p2align 4,,15
 489              		.thumb
 490              		.thumb_func
 491              		.type	_ZL7Thread1Pv, %function
 492              	_ZL7Thread1Pv:
 493              		.fnstart
 494              	.LFB42:
 495              		.loc 1 92 0
 496              		.cfi_startproc
 497              		@ args = 0, pretend = 0, frame = 16
 498              		@ frame_needed = 0, uses_anonymous_args = 0
 499              	.LVL36:
 500 0000 10B5     		push	{r4, lr}
 501              		.save {r4, lr}
 502              		.cfi_def_cfa_offset 8
 503              		.cfi_offset 4, -8
 504              		.cfi_offset 14, -4
 505              		.pad #16
 506 0002 84B0     		sub	sp, sp, #16
 507              		.cfi_def_cfa_offset 24
 508 0004 04E0     		b	.L32
 509              	.LVL37:
 510              	.L31:
 511              	.LBB20:
 512              	.LBB21:
 513              		.loc 1 110 0
ARM GAS  /tmp/cc9jWV1l.s 			page 10


 514 0006 22B2     		sxth	r2, r4
 515 0008 1048     		ldr	r0, .L34
 516 000a 1149     		ldr	r1, .L34+4
 517 000c FFF7FEFF 		bl	chprintf
 518              	.LVL38:
 519              	.L32:
 520              		.loc 1 102 0
 521 0010 6820     		movs	r0, #104
 522 0012 6B21     		movs	r1, #107
 523 0014 0022     		movs	r2, #0
 524 0016 FFF7FEFF 		bl	_Z13I2CWriteByteshhh
 525              	.LVL39:
 526              		.loc 1 104 0
 527 001a 3B21     		movs	r1, #59
 528 001c 0223     		movs	r3, #2
 529 001e 6820     		movs	r0, #104
 530 0020 6A46     		mov	r2, sp
 531 0022 FFF7FEFF 		bl	_Z12I2CReadByteshhPhh
 532              	.LVL40:
 533              		.loc 1 106 0
 534 0026 4EF66021 		movw	r1, #60000
 535              		.loc 1 105 0
 536 002a 9DF80130 		ldrb	r3, [sp, #1]	@ zero_extendqisi2
 537 002e 9DF80040 		ldrb	r4, [sp]	@ zero_extendqisi2
 538 0032 43EA0424 		orr	r4, r3, r4, lsl #8
 539              	.LVL41:
 540              		.loc 1 106 0
 541 0036 04F5EA43 		add	r3, r4, #29952
 542 003a 3033     		adds	r3, r3, #48
 543 003c 9BB2     		uxth	r3, r3
 544 003e 8B42     		cmp	r3, r1
 545 0040 E1D9     		bls	.L31
 546              		.loc 1 107 0
 547 0042 0248     		ldr	r0, .L34
 548 0044 0349     		ldr	r1, .L34+8
 549 0046 FFF7FEFF 		bl	chprintf
 550              	.LVL42:
 551 004a DCE7     		b	.L31
 552              	.L35:
 553              		.align	2
 554              	.L34:
 555 004c 00000000 		.word	SD2
 556 0050 14000000 		.word	.LC1
 557 0054 00000000 		.word	.LC0
 558              	.LBE21:
 559              	.LBE20:
 560              		.cfi_endproc
 561              	.LFE42:
 562              		.fnend
 563              		.size	_ZL7Thread1Pv, .-_ZL7Thread1Pv
 564              		.section	.text.startup.main,"ax",%progbits
 565              		.align	2
 566              		.p2align 4,,15
 567              		.global	main
 568              		.thumb
 569              		.thumb_func
 570              		.type	main, %function
ARM GAS  /tmp/cc9jWV1l.s 			page 11


 571              	main:
 572              		.fnstart
 573              	.LFB44:
 574              		.loc 1 179 0
 575              		.cfi_startproc
 576              		@ args = 0, pretend = 0, frame = 0
 577              		@ frame_needed = 0, uses_anonymous_args = 0
 578 0000 10B5     		push	{r4, lr}
 579              		.save {r4, lr}
 580              		.cfi_def_cfa_offset 8
 581              		.cfi_offset 4, -8
 582              		.cfi_offset 14, -4
 583              		.pad #8
 584 0002 82B0     		sub	sp, sp, #8
 585              		.cfi_def_cfa_offset 16
 586              		.loc 1 181 0
 587 0004 FFF7FEFF 		bl	halInit
 588              	.LVL43:
 589              		.loc 1 190 0
 590 0008 0024     		movs	r4, #0
 591              		.loc 1 182 0
 592 000a FFF7FEFF 		bl	chSysInit
 593              	.LVL44:
 594              		.loc 1 185 0
 595 000e 0A48     		ldr	r0, .L38
 596 0010 0021     		movs	r1, #0
 597 0012 FFF7FEFF 		bl	sdStart
 598              	.LVL45:
 599              		.loc 1 186 0
 600 0016 2146     		mov	r1, r4
 601 0018 0848     		ldr	r0, .L38+4
 602 001a FFF7FEFF 		bl	sdStart
 603              	.LVL46:
 604              		.loc 1 188 0
 605 001e FFF7FEFF 		bl	_Z7I2CInitv
 606              	.LVL47:
 607              		.loc 1 190 0
 608 0022 0094     		str	r4, [sp]
 609 0024 4FF49871 		mov	r1, #304
 610 0028 4022     		movs	r2, #64
 611 002a 054B     		ldr	r3, .L38+8
 612 002c 0548     		ldr	r0, .L38+12
 613 002e FFF7FEFF 		bl	chThdCreateStatic
 614              	.LVL48:
 615              		.loc 1 196 0
 616 0032 2046     		mov	r0, r4
 617 0034 02B0     		add	sp, sp, #8
 618              		.cfi_def_cfa_offset 8
 619              		@ sp needed
 620 0036 10BD     		pop	{r4, pc}
 621              	.L39:
 622              		.align	2
 623              	.L38:
 624 0038 00000000 		.word	SD2
 625 003c 00000000 		.word	SD1
 626 0040 00000000 		.word	_ZL7Thread1Pv
 627 0044 00000000 		.word	.LANCHOR2
ARM GAS  /tmp/cc9jWV1l.s 			page 12


 628              		.cfi_endproc
 629              	.LFE44:
 630              		.fnend
 631              		.size	main, .-main
 632              		.global	twid_
 633              		.section	.bss.twid_,"aw",%nobits
 634              		.align	2
 635              		.set	.LANCHOR1,. + 0
 636              		.type	twid_, %object
 637              		.size	twid_, 8
 638              	twid_:
 639 0000 00000000 		.space	8
 639      00000000 
 640              		.section	.rodata._ZL4pins,"a",%progbits
 641              		.align	2
 642              		.set	.LANCHOR0,. + 0
 643              		.type	_ZL4pins, %object
 644              		.size	_ZL4pins, 24
 645              	_ZL4pins:
 646 0000 08000000 		.word	8
 647 0004 000E0E40 		.word	1074662912
 648 0008 0B       		.byte	11
 649 0009 00       		.byte	0
 650 000a 00       		.byte	0
 651 000b 00       		.space	1
 652 000c 10000000 		.word	16
 653 0010 000E0E40 		.word	1074662912
 654 0014 0B       		.byte	11
 655 0015 00       		.byte	0
 656 0016 00       		.byte	0
 657 0017 00       		.space	1
 658              		.section	.bss._ZL9waThread1,"aw",%nobits
 659              		.align	3
 660              		.set	.LANCHOR2,. + 0
 661              		.type	_ZL9waThread1, %object
 662              		.size	_ZL9waThread1, 304
 663              	_ZL9waThread1:
 664 0000 00000000 		.space	304
 664      00000000 
 664      00000000 
 664      00000000 
 664      00000000 
 665              		.section	.rodata.str1.4,"aMS",%progbits,1
 666              		.align	2
 667              	.LC0:
 668 0000 50657272 		.ascii	"Perreo intenso\015\012\000"
 668      656F2069 
 668      6E74656E 
 668      736F0D0A 
 668      00
 669 0011 000000   		.space	3
 670              	.LC1:
 671 0014 783A2025 		.ascii	"x: %5d\011\015\012\000"
 671      3564090D 
 671      0A00
 672              		.text
 673              	.Letext0:
ARM GAS  /tmp/cc9jWV1l.s 			page 13


 674              		.file 2 "/home/david/Desktop/Embebidos/gcc-arm-none-eabi-4_9-2015q3/arm-none-eabi/include/machine/
 675              		.file 3 "/home/david/Desktop/Embebidos/gcc-arm-none-eabi-4_9-2015q3/arm-none-eabi/include/sys/_std
 676              		.file 4 "/home/david/Desktop/Embebidos/gcc-arm-none-eabi-4_9-2015q3/arm-none-eabi/include/stdint.h
 677              		.file 5 "ChibiOS/os/hal/platforms/AT91SAM3S/at91lib/SAM3S.h"
 678              		.file 6 "/home/david/Desktop/Embebidos/gcc-arm-none-eabi-4_9-2015q3/lib/gcc/arm-none-eabi/4.9.3/in
 679              		.file 7 "ChibiOS/os/ports/GCC/ARMCMx/chtypes.h"
 680              		.file 8 "ChibiOS/os/kernel/include/chlists.h"
 681              		.file 9 "ChibiOS/os/kernel/include/chthreads.h"
 682              		.file 10 "ChibiOS/os/ports/GCC/ARMCMx/chcore_v7m.h"
 683              		.file 11 "ChibiOS/os/kernel/include/chmtx.h"
 684              		.file 12 "ChibiOS/os/kernel/include/chevents.h"
 685              		.file 13 "ChibiOS/os/kernel/include/chqueues.h"
 686              		.file 14 "ChibiOS/os/kernel/include/chioch.h"
 687              		.file 15 "ChibiOS/os/hal/include/serial.h"
 688              		.file 16 "ChibiOS/os/hal/platforms/AT91SAM3S/serial_lld.h"
 689              		.file 17 "ChibiOS/os/hal/platforms/AT91SAM3S/pio.h"
 690              		.file 18 "ChibiOS/os/hal/platforms/AT91SAM3S/async.h"
 691              		.file 19 "ChibiOS/os/hal/platforms/AT91SAM3S/atmel_twid.h"
 692              		.file 20 "ChibiOS/os/hal/platforms/AT91SAM3S/core_cm3.h"
 693              		.file 21 "ChibiOS/os/hal/platforms/AT91SAM3S/atmel_twi.h"
 694              		.file 22 "ChibiOS/os/various/chprintf.h"
 695              		.file 23 "ChibiOS/os/hal/include/hal.h"
 696              		.file 24 "ChibiOS/os/kernel/include/chsys.h"