ARM GAS  /tmp/cc3ZbfiP.s 			page 1


   1              		.syntax unified
   2              		.cpu cortex-m3
   3              		.fpu softvfp
   4              		.eabi_attribute 20, 1
   5              		.eabi_attribute 21, 1
   6              		.eabi_attribute 23, 3
   7              		.eabi_attribute 24, 1
   8              		.eabi_attribute 25, 1
   9              		.eabi_attribute 26, 1
  10              		.eabi_attribute 30, 2
  11              		.eabi_attribute 34, 1
  12              		.eabi_attribute 18, 4
  13              		.thumb
  14              		.file	"main.cpp"
  15              		.text
  16              	.Ltext0:
  17              		.cfi_sections	.debug_frame
  18              		.section	.text.startup.main,"ax",%progbits
  19              		.align	2
  20              		.p2align 4,,15
  21              		.global	main
  22              		.thumb
  23              		.thumb_func
  24              		.type	main, %function
  25              	main:
  26              		.fnstart
  27              	.LFB37:
  28              		.file 1 "main.cpp"
  29              		.loc 1 38 0
  30              		.cfi_startproc
  31              		@ args = 0, pretend = 0, frame = 232
  32              		@ frame_needed = 0, uses_anonymous_args = 0
  33 0000 30B5     		push	{r4, r5, lr}
  34              		.save {r4, r5, lr}
  35              		.cfi_def_cfa_offset 12
  36              		.cfi_offset 4, -12
  37              		.cfi_offset 5, -8
  38              		.cfi_offset 14, -4
  39              		.pad #236
  40 0002 BBB0     		sub	sp, sp, #236
  41              		.cfi_def_cfa_offset 248
  42              	.LBB2:
  43              		.loc 1 40 0
  44 0004 FFF7FEFF 		bl	halInit
  45              	.LVL0:
  46              		.loc 1 41 0
  47 0008 FFF7FEFF 		bl	chSysInit
  48              	.LVL1:
  49              		.loc 1 44 0
  50 000c 5248     		ldr	r0, .L25
  51 000e 0021     		movs	r1, #0
  52 0010 FFF7FEFF 		bl	sdStart
  53              	.LVL2:
  54              		.loc 1 45 0
  55 0014 5148     		ldr	r0, .L25+4
  56 0016 0021     		movs	r1, #0
  57 0018 FFF7FEFF 		bl	sdStart
ARM GAS  /tmp/cc3ZbfiP.s 			page 2


  58              	.LVL3:
  59 001c 0024     		movs	r4, #0
  60              	.L2:
  61              	.LVL4:
  62              	.LBB3:
  63              		.loc 1 54 0
  64 001e 5048     		ldr	r0, .L25+8
  65 0020 4FF0FF31 		mov	r1, #-1
  66 0024 FFF7FEFF 		bl	chIQGetTimeout
  67              	.LVL5:
  68              		.loc 1 57 0
  69 0028 642C     		cmp	r4, #100
  70              		.loc 1 54 0
  71 002a C0B2     		uxtb	r0, r0
  72              	.LVL6:
  73              		.loc 1 57 0
  74 002c 28BF     		it	cs
  75 002e 0024     		movcs	r4, #0
  76              	.LVL7:
  77              	.LBB4:
  78              		.loc 1 60 0
  79 0030 0D28     		cmp	r0, #13
  80 0032 0BD0     		beq	.L4
  81              		.loc 1 60 0 is_stmt 0 discriminator 1
  82 0034 0A28     		cmp	r0, #10
  83 0036 09D0     		beq	.L4
  84              		.loc 1 109 0 is_stmt 1
  85 0038 A0F12003 		sub	r3, r0, #32
  86 003c 5E2B     		cmp	r3, #94
  87 003e EED8     		bhi	.L2
  88              	.LVL8:
  89              		.loc 1 111 0
  90 0040 3AAB     		add	r3, sp, #232
  91 0042 2344     		add	r3, r3, r4
  92 0044 03F8640C 		strb	r0, [r3, #-100]
  93 0048 0134     		adds	r4, r4, #1
  94              	.LVL9:
  95 004a E8E7     		b	.L2
  96              	.L4:
  97              	.LVL10:
  98              	.LBB5:
  99              		.loc 1 62 0
 100 004c 3AAB     		add	r3, sp, #232
 101 004e 1C44     		add	r4, r4, r3
 102              	.LVL11:
 103              		.loc 1 64 0
 104 0050 4449     		ldr	r1, .L25+12
 105              		.loc 1 62 0
 106 0052 0023     		movs	r3, #0
 107              		.loc 1 64 0
 108 0054 21A8     		add	r0, sp, #132
 109              	.LVL12:
 110              		.loc 1 62 0
 111 0056 04F8643C 		strb	r3, [r4, #-100]
 112              	.LVL13:
 113              		.loc 1 64 0
 114 005a FFF7FEFF 		bl	strstr
ARM GAS  /tmp/cc3ZbfiP.s 			page 3


 115              	.LVL14:
 116              		.loc 1 65 0
 117 005e 4249     		ldr	r1, .L25+16
 118              		.loc 1 64 0
 119 0060 0546     		mov	r5, r0
 120              	.LVL15:
 121              		.loc 1 65 0
 122 0062 21A8     		add	r0, sp, #132
 123              	.LVL16:
 124 0064 FFF7FEFF 		bl	strstr
 125              	.LVL17:
 126              	.LBB6:
 127              		.loc 1 69 0
 128 0068 38B3     		cbz	r0, .L6
 129              	.LBB7:
 130              		.loc 1 71 0
 131 006a 21A8     		add	r0, sp, #132
 132              	.LVL18:
 133 006c 3F49     		ldr	r1, .L25+20
 134 006e FFF7FEFF 		bl	strtok
 135              	.LVL19:
 136 0072 6C46     		mov	r4, sp
 137              		.loc 1 72 0
 138 0074 0346     		mov	r3, r0
 139 0076 40B1     		cbz	r0, .L9
 140              	.LVL20:
 141              	.L8:
 142              		.loc 1 73 0
 143 0078 44F8043F 		str	r3, [r4, #4]!
 144              		.loc 1 74 0
 145 007c 0020     		movs	r0, #0
 146              	.LVL21:
 147 007e 3B49     		ldr	r1, .L25+20
 148 0080 FFF7FEFF 		bl	strtok
 149              	.LVL22:
 150              		.loc 1 72 0
 151 0084 0346     		mov	r3, r0
 152 0086 0028     		cmp	r0, #0
 153 0088 F6D1     		bne	.L8
 154              	.L9:
 155              		.loc 1 77 0
 156 008a 3348     		ldr	r0, .L25
 157              	.LVL23:
 158 008c 3849     		ldr	r1, .L25+24
 159 008e FFF7FEFF 		bl	chprintf
 160              	.LVL24:
 161              		.loc 1 78 0
 162 0092 3148     		ldr	r0, .L25
 163 0094 0899     		ldr	r1, [sp, #32]
 164 0096 FFF7FEFF 		bl	chprintf
 165              	.LVL25:
 166              		.loc 1 79 0
 167 009a 2F48     		ldr	r0, .L25
 168 009c 3549     		ldr	r1, .L25+28
 169 009e FFF7FEFF 		bl	chprintf
 170              	.LVL26:
 171              		.loc 1 80 0
ARM GAS  /tmp/cc3ZbfiP.s 			page 4


 172 00a2 2D48     		ldr	r0, .L25
 173 00a4 3449     		ldr	r1, .L25+32
 174 00a6 FFF7FEFF 		bl	chprintf
 175              	.LVL27:
 176              		.loc 1 81 0
 177 00aa 2B48     		ldr	r0, .L25
 178 00ac 0799     		ldr	r1, [sp, #28]
 179 00ae FFF7FEFF 		bl	chprintf
 180              	.LVL28:
 181              		.loc 1 82 0
 182 00b2 2948     		ldr	r0, .L25
 183 00b4 2F49     		ldr	r1, .L25+28
 184 00b6 FFF7FEFF 		bl	chprintf
 185              	.LVL29:
 186              	.L6:
 187              	.LBE7:
 188              	.LBE6:
 189              	.LBB8:
 190              		.loc 1 84 0
 191 00ba 002D     		cmp	r5, #0
 192 00bc 49D0     		beq	.L14
 193              	.LBB9:
 194              		.loc 1 86 0
 195 00be 21A8     		add	r0, sp, #132
 196 00c0 2A49     		ldr	r1, .L25+20
 197 00c2 FFF7FEFF 		bl	strtok
 198              	.LVL30:
 199 00c6 10AC     		add	r4, sp, #64
 200              		.loc 1 87 0
 201 00c8 0346     		mov	r3, r0
 202 00ca 40B1     		cbz	r0, .L13
 203              	.LVL31:
 204              	.L12:
 205              		.loc 1 88 0
 206 00cc 44F8043F 		str	r3, [r4, #4]!
 207              		.loc 1 89 0
 208 00d0 0020     		movs	r0, #0
 209              	.LVL32:
 210 00d2 2649     		ldr	r1, .L25+20
 211 00d4 FFF7FEFF 		bl	strtok
 212              	.LVL33:
 213              		.loc 1 87 0
 214 00d8 0346     		mov	r3, r0
 215 00da 0028     		cmp	r0, #0
 216 00dc F6D1     		bne	.L12
 217              	.L13:
 218              		.loc 1 92 0
 219 00de 1E48     		ldr	r0, .L25
 220              	.LVL34:
 221 00e0 2649     		ldr	r1, .L25+36
 222 00e2 FFF7FEFF 		bl	chprintf
 223              	.LVL35:
 224              		.loc 1 93 0
 225 00e6 1C48     		ldr	r0, .L25
 226 00e8 1499     		ldr	r1, [sp, #80]
 227 00ea FFF7FEFF 		bl	chprintf
 228              	.LVL36:
ARM GAS  /tmp/cc3ZbfiP.s 			page 5


 229              		.loc 1 94 0
 230 00ee 1A48     		ldr	r0, .L25
 231 00f0 1599     		ldr	r1, [sp, #84]
 232 00f2 FFF7FEFF 		bl	chprintf
 233              	.LVL37:
 234              		.loc 1 95 0
 235 00f6 1848     		ldr	r0, .L25
 236 00f8 1E49     		ldr	r1, .L25+28
 237 00fa FFF7FEFF 		bl	chprintf
 238              	.LVL38:
 239              		.loc 1 96 0
 240 00fe 1648     		ldr	r0, .L25
 241 0100 1F49     		ldr	r1, .L25+40
 242 0102 FFF7FEFF 		bl	chprintf
 243              	.LVL39:
 244              		.loc 1 97 0
 245 0106 1448     		ldr	r0, .L25
 246 0108 1699     		ldr	r1, [sp, #88]
 247 010a FFF7FEFF 		bl	chprintf
 248              	.LVL40:
 249              		.loc 1 98 0
 250 010e 1248     		ldr	r0, .L25
 251 0110 1799     		ldr	r1, [sp, #92]
 252 0112 FFF7FEFF 		bl	chprintf
 253              	.LVL41:
 254              		.loc 1 99 0
 255 0116 1048     		ldr	r0, .L25
 256 0118 1649     		ldr	r1, .L25+28
 257 011a FFF7FEFF 		bl	chprintf
 258              	.LVL42:
 259              		.loc 1 100 0
 260 011e 0E48     		ldr	r0, .L25
 261 0120 1849     		ldr	r1, .L25+44
 262 0122 FFF7FEFF 		bl	chprintf
 263              	.LVL43:
 264              		.loc 1 101 0
 265 0126 0C48     		ldr	r0, .L25
 266 0128 1899     		ldr	r1, [sp, #96]
 267 012a FFF7FEFF 		bl	chprintf
 268              	.LVL44:
 269              		.loc 1 102 0
 270 012e 0A48     		ldr	r0, .L25
 271 0130 1049     		ldr	r1, .L25+28
 272 0132 FFF7FEFF 		bl	chprintf
 273              	.LVL45:
 274              		.loc 1 103 0
 275 0136 0848     		ldr	r0, .L25
 276 0138 1349     		ldr	r1, .L25+48
 277 013a FFF7FEFF 		bl	chprintf
 278              	.LVL46:
 279              		.loc 1 104 0
 280 013e 0648     		ldr	r0, .L25
 281 0140 1399     		ldr	r1, [sp, #76]
 282 0142 FFF7FEFF 		bl	chprintf
 283              	.LVL47:
 284              		.loc 1 105 0
 285 0146 0448     		ldr	r0, .L25
ARM GAS  /tmp/cc3ZbfiP.s 			page 6


 286 0148 0A49     		ldr	r1, .L25+28
 287 014a FFF7FEFF 		bl	chprintf
 288              	.LVL48:
 289              	.LBE9:
 290              	.LBE8:
 291              		.loc 1 63 0
 292 014e 0024     		movs	r4, #0
 293 0150 65E7     		b	.L2
 294              	.LVL49:
 295              	.L14:
 296 0152 2C46     		mov	r4, r5
 297 0154 63E7     		b	.L2
 298              	.L26:
 299 0156 00BF     		.align	2
 300              	.L25:
 301 0158 00000000 		.word	SD2
 302 015c 00000000 		.word	SD1
 303 0160 10000000 		.word	SD1+16
 304 0164 00000000 		.word	.LC0
 305 0168 08000000 		.word	.LC1
 306 016c 10000000 		.word	.LC2
 307 0170 14000000 		.word	.LC3
 308 0174 1C000000 		.word	.LC4
 309 0178 20000000 		.word	.LC5
 310 017c 28000000 		.word	.LC6
 311 0180 30000000 		.word	.LC7
 312 0184 38000000 		.word	.LC8
 313 0188 3C000000 		.word	.LC9
 314              	.LBE5:
 315              	.LBE4:
 316              	.LBE3:
 317              	.LBE2:
 318              		.cfi_endproc
 319              	.LFE37:
 320              		.fnend
 321              		.size	main, .-main
 322              		.section	.rodata.str1.4,"aMS",%progbits,1
 323              		.align	2
 324              	.LC0:
 325 0000 24475052 		.ascii	"$GPRMC\000"
 325      4D4300
 326 0007 00       		.space	1
 327              	.LC1:
 328 0008 24475047 		.ascii	"$GPGGA\000"
 328      474100
 329 000f 00       		.space	1
 330              	.LC2:
 331 0010 2C00     		.ascii	",\000"
 332 0012 0000     		.space	2
 333              	.LC3:
 334 0014 5341543D 		.ascii	"SAT=\000"
 334      00
 335 0019 000000   		.space	3
 336              	.LC4:
 337 001c 0D0A00   		.ascii	"\015\012\000"
 338 001f 00       		.space	1
 339              	.LC5:
ARM GAS  /tmp/cc3ZbfiP.s 			page 7


 340 0020 56414C3D 		.ascii	"VAL=\000"
 340      00
 341 0025 000000   		.space	3
 342              	.LC6:
 343 0028 4C41543D 		.ascii	"LAT=\000"
 343      00
 344 002d 000000   		.space	3
 345              	.LC7:
 346 0030 4C4F4E3D 		.ascii	"LON=\000"
 346      00
 347 0035 000000   		.space	3
 348              	.LC8:
 349 0038 53503D00 		.ascii	"SP=\000"
 350              	.LC9:
 351 003c 56414C32 		.ascii	"VAL2=\000"
 351      3D00
 352              		.text
 353              	.Letext0:
 354              		.file 2 "/home/david/Desktop/Embebidos/gcc-arm-none-eabi-4_9-2015q3/arm-none-eabi/include/machine/
 355              		.file 3 "/home/david/Desktop/Embebidos/gcc-arm-none-eabi-4_9-2015q3/arm-none-eabi/include/sys/_std
 356              		.file 4 "/home/david/Desktop/Embebidos/gcc-arm-none-eabi-4_9-2015q3/arm-none-eabi/include/stdint.h
 357              		.file 5 "ChibiOS/os/hal/platforms/AT91SAM3S/at91lib/SAM3S.h"
 358              		.file 6 "/home/david/Desktop/Embebidos/gcc-arm-none-eabi-4_9-2015q3/lib/gcc/arm-none-eabi/4.9.3/in
 359              		.file 7 "ChibiOS/os/ports/GCC/ARMCMx/chtypes.h"
 360              		.file 8 "ChibiOS/os/kernel/include/chlists.h"
 361              		.file 9 "ChibiOS/os/kernel/include/chthreads.h"
 362              		.file 10 "ChibiOS/os/ports/GCC/ARMCMx/chcore_v7m.h"
 363              		.file 11 "ChibiOS/os/kernel/include/chmtx.h"
 364              		.file 12 "ChibiOS/os/kernel/include/chevents.h"
 365              		.file 13 "ChibiOS/os/kernel/include/chqueues.h"
 366              		.file 14 "ChibiOS/os/kernel/include/chioch.h"
 367              		.file 15 "ChibiOS/os/hal/include/serial.h"
 368              		.file 16 "ChibiOS/os/hal/platforms/AT91SAM3S/serial_lld.h"
 369              		.file 17 "/home/david/Desktop/Embebidos/gcc-arm-none-eabi-4_9-2015q3/arm-none-eabi/include/string.
 370              		.file 18 "ChibiOS/os/hal/include/hal.h"
 371              		.file 19 "ChibiOS/os/kernel/include/chsys.h"
 372              		.file 20 "ChibiOS/os/various/chprintf.h"
 373              		.file 21 "ChibiOS/os/hal/platforms/AT91SAM3S/core_cm3.h"
 374              		.section	.debug_info,"",%progbits
 375              	.Ldebug_info0:
 376 0000 940D0000 		.4byte	0xd94
 377 0004 0400     		.2byte	0x4
 378 0006 00000000 		.4byte	.Ldebug_abbrev0
 379 000a 04       		.byte	0x4
 380 000b 01       		.uleb128 0x1
 381 000c F5020000 		.4byte	.LASF144
 382 0010 04       		.byte	0x4
 383 0011 93040000 		.4byte	.LASF145
 384 0015 C4020000 		.4byte	.LASF146
 385 0019 00000000 		.4byte	.Ldebug_ranges0+0
 386 001d 00000000 		.4byte	0
 387 0021 00000000 		.4byte	.Ldebug_line0
 388 0025 02       		.uleb128 0x2
 389 0026 01       		.byte	0x1
 390 0027 06       		.byte	0x6
 391 0028 B8000000 		.4byte	.LASF0
 392 002c 03       		.uleb128 0x3
ARM GAS  /tmp/cc3ZbfiP.s 			page 8


 393 002d 2E000000 		.4byte	.LASF4
 394 0031 02       		.byte	0x2
 395 0032 1D       		.byte	0x1d
 396 0033 37000000 		.4byte	0x37
 397 0037 02       		.uleb128 0x2
 398 0038 01       		.byte	0x1
 399 0039 08       		.byte	0x8
 400 003a 5B040000 		.4byte	.LASF1
 401 003e 02       		.uleb128 0x2
 402 003f 02       		.byte	0x2
 403 0040 05       		.byte	0x5
 404 0041 81040000 		.4byte	.LASF2
 405 0045 02       		.uleb128 0x2
 406 0046 02       		.byte	0x2
 407 0047 07       		.byte	0x7
 408 0048 E0010000 		.4byte	.LASF3
 409 004c 03       		.uleb128 0x3
 410 004d 76050000 		.4byte	.LASF5
 411 0051 02       		.byte	0x2
 412 0052 3F       		.byte	0x3f
 413 0053 57000000 		.4byte	0x57
 414 0057 02       		.uleb128 0x2
 415 0058 04       		.byte	0x4
 416 0059 05       		.byte	0x5
 417 005a 03010000 		.4byte	.LASF6
 418 005e 03       		.uleb128 0x3
 419 005f 66010000 		.4byte	.LASF7
 420 0063 02       		.byte	0x2
 421 0064 41       		.byte	0x41
 422 0065 69000000 		.4byte	0x69
 423 0069 02       		.uleb128 0x2
 424 006a 04       		.byte	0x4
 425 006b 07       		.byte	0x7
 426 006c 30050000 		.4byte	.LASF8
 427 0070 02       		.uleb128 0x2
 428 0071 08       		.byte	0x8
 429 0072 05       		.byte	0x5
 430 0073 AA000000 		.4byte	.LASF9
 431 0077 02       		.uleb128 0x2
 432 0078 08       		.byte	0x8
 433 0079 07       		.byte	0x7
 434 007a 57000000 		.4byte	.LASF10
 435 007e 04       		.uleb128 0x4
 436 007f 04       		.byte	0x4
 437 0080 05       		.byte	0x5
 438 0081 696E7400 		.ascii	"int\000"
 439 0085 02       		.uleb128 0x2
 440 0086 04       		.byte	0x4
 441 0087 07       		.byte	0x7
 442 0088 90010000 		.4byte	.LASF11
 443 008c 03       		.uleb128 0x3
 444 008d F6050000 		.4byte	.LASF12
 445 0091 03       		.byte	0x3
 446 0092 14       		.byte	0x14
 447 0093 2C000000 		.4byte	0x2c
 448 0097 03       		.uleb128 0x3
 449 0098 53040000 		.4byte	.LASF13
ARM GAS  /tmp/cc3ZbfiP.s 			page 9


 450 009c 03       		.byte	0x3
 451 009d 1F       		.byte	0x1f
 452 009e 4C000000 		.4byte	0x4c
 453 00a2 03       		.uleb128 0x3
 454 00a3 FF040000 		.4byte	.LASF14
 455 00a7 03       		.byte	0x3
 456 00a8 20       		.byte	0x20
 457 00a9 5E000000 		.4byte	0x5e
 458 00ad 03       		.uleb128 0x3
 459 00ae 26040000 		.4byte	.LASF15
 460 00b2 04       		.byte	0x4
 461 00b3 3E       		.byte	0x3e
 462 00b4 85000000 		.4byte	0x85
 463 00b8 03       		.uleb128 0x3
 464 00b9 17020000 		.4byte	.LASF16
 465 00bd 05       		.byte	0x5
 466 00be 37       		.byte	0x37
 467 00bf C3000000 		.4byte	0xc3
 468 00c3 05       		.uleb128 0x5
 469 00c4 A2000000 		.4byte	0xa2
 470 00c8 03       		.uleb128 0x3
 471 00c9 E3030000 		.4byte	.LASF17
 472 00cd 05       		.byte	0x5
 473 00ce 39       		.byte	0x39
 474 00cf C3000000 		.4byte	0xc3
 475 00d3 03       		.uleb128 0x3
 476 00d4 C6050000 		.4byte	.LASF18
 477 00d8 05       		.byte	0x5
 478 00d9 3A       		.byte	0x3a
 479 00da C3000000 		.4byte	0xc3
 480 00de 02       		.uleb128 0x2
 481 00df 04       		.byte	0x4
 482 00e0 07       		.byte	0x7
 483 00e1 72020000 		.4byte	.LASF19
 484 00e5 06       		.uleb128 0x6
 485 00e6 2801     		.2byte	0x128
 486 00e8 05       		.byte	0x5
 487 00e9 0817     		.2byte	0x1708
 488 00eb 54050000 		.4byte	.LASF147
 489 00ef 02020000 		.4byte	0x202
 490 00f3 07       		.uleb128 0x7
 491 00f4 1D020000 		.4byte	.LASF20
 492 00f8 05       		.byte	0x5
 493 00f9 0917     		.2byte	0x1709
 494 00fb C8000000 		.4byte	0xc8
 495 00ff 00       		.byte	0
 496 0100 07       		.uleb128 0x7
 497 0101 28050000 		.4byte	.LASF21
 498 0105 05       		.byte	0x5
 499 0106 0A17     		.2byte	0x170a
 500 0108 D3000000 		.4byte	0xd3
 501 010c 04       		.byte	0x4
 502 010d 07       		.uleb128 0x7
 503 010e 48060000 		.4byte	.LASF22
 504 0112 05       		.byte	0x5
 505 0113 0B17     		.2byte	0x170b
 506 0115 C8000000 		.4byte	0xc8
ARM GAS  /tmp/cc3ZbfiP.s 			page 10


 507 0119 08       		.byte	0x8
 508 011a 07       		.uleb128 0x7
 509 011b AD050000 		.4byte	.LASF23
 510 011f 05       		.byte	0x5
 511 0120 0C17     		.2byte	0x170c
 512 0122 C8000000 		.4byte	0xc8
 513 0126 0C       		.byte	0xc
 514 0127 07       		.uleb128 0x7
 515 0128 00000000 		.4byte	.LASF24
 516 012c 05       		.byte	0x5
 517 012d 0D17     		.2byte	0x170d
 518 012f B8000000 		.4byte	0xb8
 519 0133 10       		.byte	0x10
 520 0134 07       		.uleb128 0x7
 521 0135 B2020000 		.4byte	.LASF25
 522 0139 05       		.byte	0x5
 523 013a 0E17     		.2byte	0x170e
 524 013c B8000000 		.4byte	0xb8
 525 0140 14       		.byte	0x14
 526 0141 07       		.uleb128 0x7
 527 0142 08050000 		.4byte	.LASF26
 528 0146 05       		.byte	0x5
 529 0147 0F17     		.2byte	0x170f
 530 0149 B8000000 		.4byte	0xb8
 531 014d 18       		.byte	0x18
 532 014e 07       		.uleb128 0x7
 533 014f D1010000 		.4byte	.LASF27
 534 0153 05       		.byte	0x5
 535 0154 1017     		.2byte	0x1710
 536 0156 C8000000 		.4byte	0xc8
 537 015a 1C       		.byte	0x1c
 538 015b 07       		.uleb128 0x7
 539 015c E9030000 		.4byte	.LASF28
 540 0160 05       		.byte	0x5
 541 0161 1117     		.2byte	0x1711
 542 0163 D3000000 		.4byte	0xd3
 543 0167 20       		.byte	0x20
 544 0168 07       		.uleb128 0x7
 545 0169 C7010000 		.4byte	.LASF29
 546 016d 05       		.byte	0x5
 547 016e 1217     		.2byte	0x1712
 548 0170 12020000 		.4byte	0x212
 549 0174 24       		.byte	0x24
 550 0175 08       		.uleb128 0x8
 551 0176 EC020000 		.4byte	.LASF30
 552 017a 05       		.byte	0x5
 553 017b 1317     		.2byte	0x1713
 554 017d D3000000 		.4byte	0xd3
 555 0181 0001     		.2byte	0x100
 556 0183 08       		.uleb128 0x8
 557 0184 4E000000 		.4byte	.LASF31
 558 0188 05       		.byte	0x5
 559 0189 1417     		.2byte	0x1714
 560 018b D3000000 		.4byte	0xd3
 561 018f 0401     		.2byte	0x104
 562 0191 08       		.uleb128 0x8
 563 0192 10060000 		.4byte	.LASF32
ARM GAS  /tmp/cc3ZbfiP.s 			page 11


 564 0196 05       		.byte	0x5
 565 0197 1517     		.2byte	0x1715
 566 0199 D3000000 		.4byte	0xd3
 567 019d 0801     		.2byte	0x108
 568 019f 08       		.uleb128 0x8
 569 01a0 E1040000 		.4byte	.LASF33
 570 01a4 05       		.byte	0x5
 571 01a5 1617     		.2byte	0x1716
 572 01a7 D3000000 		.4byte	0xd3
 573 01ab 0C01     		.2byte	0x10c
 574 01ad 08       		.uleb128 0x8
 575 01ae C8040000 		.4byte	.LASF34
 576 01b2 05       		.byte	0x5
 577 01b3 1717     		.2byte	0x1717
 578 01b5 D3000000 		.4byte	0xd3
 579 01b9 1001     		.2byte	0x110
 580 01bb 08       		.uleb128 0x8
 581 01bc A8020000 		.4byte	.LASF35
 582 01c0 05       		.byte	0x5
 583 01c1 1817     		.2byte	0x1718
 584 01c3 D3000000 		.4byte	0xd3
 585 01c7 1401     		.2byte	0x114
 586 01c9 08       		.uleb128 0x8
 587 01ca 7B020000 		.4byte	.LASF36
 588 01ce 05       		.byte	0x5
 589 01cf 1917     		.2byte	0x1719
 590 01d1 D3000000 		.4byte	0xd3
 591 01d5 1801     		.2byte	0x118
 592 01d7 08       		.uleb128 0x8
 593 01d8 68020000 		.4byte	.LASF37
 594 01dc 05       		.byte	0x5
 595 01dd 1A17     		.2byte	0x171a
 596 01df D3000000 		.4byte	0xd3
 597 01e3 1C01     		.2byte	0x11c
 598 01e5 08       		.uleb128 0x8
 599 01e6 C4000000 		.4byte	.LASF38
 600 01ea 05       		.byte	0x5
 601 01eb 1B17     		.2byte	0x171b
 602 01ed C8000000 		.4byte	0xc8
 603 01f1 2001     		.2byte	0x120
 604 01f3 08       		.uleb128 0x8
 605 01f4 55010000 		.4byte	.LASF39
 606 01f8 05       		.byte	0x5
 607 01f9 1C17     		.2byte	0x171c
 608 01fb B8000000 		.4byte	0xb8
 609 01ff 2401     		.2byte	0x124
 610 0201 00       		.byte	0
 611 0202 09       		.uleb128 0x9
 612 0203 69000000 		.4byte	0x69
 613 0207 12020000 		.4byte	0x212
 614 020b 0A       		.uleb128 0xa
 615 020c DE000000 		.4byte	0xde
 616 0210 36       		.byte	0x36
 617 0211 00       		.byte	0
 618 0212 05       		.uleb128 0x5
 619 0213 02020000 		.4byte	0x202
 620 0217 0B       		.uleb128 0xb
ARM GAS  /tmp/cc3ZbfiP.s 			page 12


 621 0218 80050000 		.4byte	.LASF40
 622 021c 05       		.byte	0x5
 623 021d 1D17     		.2byte	0x171d
 624 021f E5000000 		.4byte	0xe5
 625 0223 03       		.uleb128 0x3
 626 0224 09000000 		.4byte	.LASF41
 627 0228 06       		.byte	0x6
 628 0229 D4       		.byte	0xd4
 629 022a 85000000 		.4byte	0x85
 630 022e 03       		.uleb128 0x3
 631 022f E0000000 		.4byte	.LASF42
 632 0233 07       		.byte	0x7
 633 0234 2E       		.byte	0x2e
 634 0235 97000000 		.4byte	0x97
 635 0239 03       		.uleb128 0x3
 636 023a B2040000 		.4byte	.LASF43
 637 023e 07       		.byte	0x7
 638 023f 2F       		.byte	0x2f
 639 0240 8C000000 		.4byte	0x8c
 640 0244 03       		.uleb128 0x3
 641 0245 13010000 		.4byte	.LASF44
 642 0249 07       		.byte	0x7
 643 024a 30       		.byte	0x30
 644 024b 8C000000 		.4byte	0x8c
 645 024f 03       		.uleb128 0x3
 646 0250 1E040000 		.4byte	.LASF45
 647 0254 07       		.byte	0x7
 648 0255 31       		.byte	0x31
 649 0256 8C000000 		.4byte	0x8c
 650 025a 03       		.uleb128 0x3
 651 025b 43040000 		.4byte	.LASF46
 652 025f 07       		.byte	0x7
 653 0260 32       		.byte	0x32
 654 0261 A2000000 		.4byte	0xa2
 655 0265 03       		.uleb128 0x3
 656 0266 F3010000 		.4byte	.LASF47
 657 026a 07       		.byte	0x7
 658 026b 33       		.byte	0x33
 659 026c 97000000 		.4byte	0x97
 660 0270 03       		.uleb128 0x3
 661 0271 31020000 		.4byte	.LASF48
 662 0275 07       		.byte	0x7
 663 0276 35       		.byte	0x35
 664 0277 A2000000 		.4byte	0xa2
 665 027b 03       		.uleb128 0x3
 666 027c 61050000 		.4byte	.LASF49
 667 0280 07       		.byte	0x7
 668 0281 36       		.byte	0x36
 669 0282 A2000000 		.4byte	0xa2
 670 0286 03       		.uleb128 0x3
 671 0287 DA040000 		.4byte	.LASF50
 672 028b 08       		.byte	0x8
 673 028c 2A       		.byte	0x2a
 674 028d 91020000 		.4byte	0x291
 675 0291 0C       		.uleb128 0xc
 676 0292 DA040000 		.4byte	.LASF50
 677 0296 48       		.byte	0x48
ARM GAS  /tmp/cc3ZbfiP.s 			page 13


 678 0297 09       		.byte	0x9
 679 0298 5E       		.byte	0x5e
 680 0299 B7030000 		.4byte	0x3b7
 681 029d 0D       		.uleb128 0xd
 682 029e 04       		.byte	0x4
 683 029f 09       		.byte	0x9
 684 02a0 90       		.byte	0x90
 685 02a1 D2020000 		.4byte	0x2d2
 686 02a5 0E       		.uleb128 0xe
 687 02a6 1B000000 		.4byte	.LASF51
 688 02aa 09       		.byte	0x9
 689 02ab 97       		.byte	0x97
 690 02ac 65020000 		.4byte	0x265
 691 02b0 0E       		.uleb128 0xe
 692 02b1 7D000000 		.4byte	.LASF52
 693 02b5 09       		.byte	0x9
 694 02b6 9E       		.byte	0x9e
 695 02b7 65020000 		.4byte	0x265
 696 02bb 0E       		.uleb128 0xe
 697 02bc 27060000 		.4byte	.LASF53
 698 02c0 09       		.byte	0x9
 699 02c1 A5       		.byte	0xa5
 700 02c2 1C040000 		.4byte	0x41c
 701 02c6 0E       		.uleb128 0xe
 702 02c7 A4040000 		.4byte	.LASF54
 703 02cb 09       		.byte	0x9
 704 02cc AC       		.byte	0xac
 705 02cd 70020000 		.4byte	0x270
 706 02d1 00       		.byte	0
 707 02d2 0F       		.uleb128 0xf
 708 02d3 AB040000 		.4byte	.LASF55
 709 02d7 09       		.byte	0x9
 710 02d8 5F       		.byte	0x5f
 711 02d9 6D050000 		.4byte	0x56d
 712 02dd 00       		.byte	0
 713 02de 0F       		.uleb128 0xf
 714 02df 34040000 		.4byte	.LASF56
 715 02e3 09       		.byte	0x9
 716 02e4 61       		.byte	0x61
 717 02e5 6D050000 		.4byte	0x56d
 718 02e9 04       		.byte	0x4
 719 02ea 0F       		.uleb128 0xf
 720 02eb 93000000 		.4byte	.LASF57
 721 02ef 09       		.byte	0x9
 722 02f0 63       		.byte	0x63
 723 02f1 5A020000 		.4byte	0x25a
 724 02f5 08       		.byte	0x8
 725 02f6 0F       		.uleb128 0xf
 726 02f7 59060000 		.4byte	.LASF58
 727 02fb 09       		.byte	0x9
 728 02fc 64       		.byte	0x64
 729 02fd 99040000 		.4byte	0x499
 730 0301 0C       		.byte	0xc
 731 0302 0F       		.uleb128 0xf
 732 0303 3F010000 		.4byte	.LASF59
 733 0307 09       		.byte	0x9
 734 0308 66       		.byte	0x66
ARM GAS  /tmp/cc3ZbfiP.s 			page 14


 735 0309 6D050000 		.4byte	0x56d
 736 030d 10       		.byte	0x10
 737 030e 0F       		.uleb128 0xf
 738 030f 9C040000 		.4byte	.LASF60
 739 0313 09       		.byte	0x9
 740 0314 67       		.byte	0x67
 741 0315 6D050000 		.4byte	0x56d
 742 0319 14       		.byte	0x14
 743 031a 0F       		.uleb128 0xf
 744 031b D2050000 		.4byte	.LASF61
 745 031f 09       		.byte	0x9
 746 0320 6E       		.byte	0x6e
 747 0321 73050000 		.4byte	0x573
 748 0325 18       		.byte	0x18
 749 0326 0F       		.uleb128 0xf
 750 0327 8B040000 		.4byte	.LASF62
 751 032b 09       		.byte	0x9
 752 032c 79       		.byte	0x79
 753 032d 44020000 		.4byte	0x244
 754 0331 1C       		.byte	0x1c
 755 0332 0F       		.uleb128 0xf
 756 0333 BA040000 		.4byte	.LASF63
 757 0337 09       		.byte	0x9
 758 0338 7D       		.byte	0x7d
 759 0339 39020000 		.4byte	0x239
 760 033d 1D       		.byte	0x1d
 761 033e 0F       		.uleb128 0xf
 762 033f 5F010000 		.4byte	.LASF64
 763 0343 09       		.byte	0x9
 764 0344 82       		.byte	0x82
 765 0345 4F020000 		.4byte	0x24f
 766 0349 1E       		.byte	0x1e
 767 034a 0F       		.uleb128 0xf
 768 034b 38010000 		.4byte	.LASF65
 769 034f 09       		.byte	0x9
 770 0350 89       		.byte	0x89
 771 0351 BA040000 		.4byte	0x4ba
 772 0355 20       		.byte	0x20
 773 0356 10       		.uleb128 0x10
 774 0357 705F7500 		.ascii	"p_u\000"
 775 035b 09       		.byte	0x9
 776 035c AE       		.byte	0xae
 777 035d 9D020000 		.4byte	0x29d
 778 0361 24       		.byte	0x24
 779 0362 0F       		.uleb128 0xf
 780 0363 5F060000 		.4byte	.LASF66
 781 0367 09       		.byte	0x9
 782 0368 B3       		.byte	0xb3
 783 0369 06040000 		.4byte	0x406
 784 036d 28       		.byte	0x28
 785 036e 0F       		.uleb128 0xf
 786 036f B4010000 		.4byte	.LASF67
 787 0373 09       		.byte	0x9
 788 0374 B9       		.byte	0xb9
 789 0375 E2030000 		.4byte	0x3e2
 790 0379 2C       		.byte	0x2c
 791 037a 0F       		.uleb128 0xf
ARM GAS  /tmp/cc3ZbfiP.s 			page 15


 792 037b F0050000 		.4byte	.LASF68
 793 037f 09       		.byte	0x9
 794 0380 BD       		.byte	0xbd
 795 0381 65020000 		.4byte	0x265
 796 0385 34       		.byte	0x34
 797 0386 0F       		.uleb128 0xf
 798 0387 EA040000 		.4byte	.LASF69
 799 038b 09       		.byte	0x9
 800 038c C3       		.byte	0xc3
 801 038d 70020000 		.4byte	0x270
 802 0391 38       		.byte	0x38
 803 0392 0F       		.uleb128 0xf
 804 0393 77040000 		.4byte	.LASF70
 805 0397 09       		.byte	0x9
 806 0398 CA       		.byte	0xca
 807 0399 85050000 		.4byte	0x585
 808 039d 3C       		.byte	0x3c
 809 039e 0F       		.uleb128 0xf
 810 039f 6B050000 		.4byte	.LASF71
 811 03a3 09       		.byte	0x9
 812 03a4 CE       		.byte	0xce
 813 03a5 5A020000 		.4byte	0x25a
 814 03a9 40       		.byte	0x40
 815 03aa 0F       		.uleb128 0xf
 816 03ab D8000000 		.4byte	.LASF72
 817 03af 09       		.byte	0x9
 818 03b0 D4       		.byte	0xd4
 819 03b1 1C040000 		.4byte	0x41c
 820 03b5 44       		.byte	0x44
 821 03b6 00       		.byte	0
 822 03b7 11       		.uleb128 0x11
 823 03b8 08       		.byte	0x8
 824 03b9 08       		.byte	0x8
 825 03ba 61       		.byte	0x61
 826 03bb F3030000 		.4byte	.LASF74
 827 03bf DC030000 		.4byte	0x3dc
 828 03c3 0F       		.uleb128 0xf
 829 03c4 AB040000 		.4byte	.LASF55
 830 03c8 08       		.byte	0x8
 831 03c9 62       		.byte	0x62
 832 03ca DC030000 		.4byte	0x3dc
 833 03ce 00       		.byte	0
 834 03cf 0F       		.uleb128 0xf
 835 03d0 34040000 		.4byte	.LASF56
 836 03d4 08       		.byte	0x8
 837 03d5 64       		.byte	0x64
 838 03d6 DC030000 		.4byte	0x3dc
 839 03da 04       		.byte	0x4
 840 03db 00       		.byte	0
 841 03dc 12       		.uleb128 0x12
 842 03dd 04       		.byte	0x4
 843 03de 86020000 		.4byte	0x286
 844 03e2 03       		.uleb128 0x3
 845 03e3 55020000 		.4byte	.LASF73
 846 03e7 08       		.byte	0x8
 847 03e8 66       		.byte	0x66
 848 03e9 B7030000 		.4byte	0x3b7
ARM GAS  /tmp/cc3ZbfiP.s 			page 16


 849 03ed 11       		.uleb128 0x11
 850 03ee 04       		.byte	0x4
 851 03ef 08       		.byte	0x8
 852 03f0 6B       		.byte	0x6b
 853 03f1 EF000000 		.4byte	.LASF75
 854 03f5 06040000 		.4byte	0x406
 855 03f9 0F       		.uleb128 0xf
 856 03fa AB040000 		.4byte	.LASF55
 857 03fe 08       		.byte	0x8
 858 03ff 6D       		.byte	0x6d
 859 0400 DC030000 		.4byte	0x3dc
 860 0404 00       		.byte	0
 861 0405 00       		.byte	0
 862 0406 03       		.uleb128 0x3
 863 0407 25020000 		.4byte	.LASF76
 864 040b 08       		.byte	0x8
 865 040c 70       		.byte	0x70
 866 040d ED030000 		.4byte	0x3ed
 867 0411 03       		.uleb128 0x3
 868 0412 71010000 		.4byte	.LASF77
 869 0416 0A       		.byte	0xa
 870 0417 D7       		.byte	0xd7
 871 0418 1C040000 		.4byte	0x41c
 872 041c 13       		.uleb128 0x13
 873 041d 04       		.byte	0x4
 874 041e 0C       		.uleb128 0xc
 875 041f B6050000 		.4byte	.LASF78
 876 0423 24       		.byte	0x24
 877 0424 0A       		.byte	0xa
 878 0425 FE       		.byte	0xfe
 879 0426 99040000 		.4byte	0x499
 880 042a 14       		.uleb128 0x14
 881 042b 723400   		.ascii	"r4\000"
 882 042e 0A       		.byte	0xa
 883 042f 1101     		.2byte	0x111
 884 0431 11040000 		.4byte	0x411
 885 0435 00       		.byte	0
 886 0436 14       		.uleb128 0x14
 887 0437 723500   		.ascii	"r5\000"
 888 043a 0A       		.byte	0xa
 889 043b 1201     		.2byte	0x112
 890 043d 11040000 		.4byte	0x411
 891 0441 04       		.byte	0x4
 892 0442 14       		.uleb128 0x14
 893 0443 723600   		.ascii	"r6\000"
 894 0446 0A       		.byte	0xa
 895 0447 1301     		.2byte	0x113
 896 0449 11040000 		.4byte	0x411
 897 044d 08       		.byte	0x8
 898 044e 14       		.uleb128 0x14
 899 044f 723700   		.ascii	"r7\000"
 900 0452 0A       		.byte	0xa
 901 0453 1401     		.2byte	0x114
 902 0455 11040000 		.4byte	0x411
 903 0459 0C       		.byte	0xc
 904 045a 14       		.uleb128 0x14
 905 045b 723800   		.ascii	"r8\000"
ARM GAS  /tmp/cc3ZbfiP.s 			page 17


 906 045e 0A       		.byte	0xa
 907 045f 1501     		.2byte	0x115
 908 0461 11040000 		.4byte	0x411
 909 0465 10       		.byte	0x10
 910 0466 14       		.uleb128 0x14
 911 0467 723900   		.ascii	"r9\000"
 912 046a 0A       		.byte	0xa
 913 046b 1601     		.2byte	0x116
 914 046d 11040000 		.4byte	0x411
 915 0471 14       		.byte	0x14
 916 0472 14       		.uleb128 0x14
 917 0473 72313000 		.ascii	"r10\000"
 918 0477 0A       		.byte	0xa
 919 0478 1701     		.2byte	0x117
 920 047a 11040000 		.4byte	0x411
 921 047e 18       		.byte	0x18
 922 047f 14       		.uleb128 0x14
 923 0480 72313100 		.ascii	"r11\000"
 924 0484 0A       		.byte	0xa
 925 0485 1801     		.2byte	0x118
 926 0487 11040000 		.4byte	0x411
 927 048b 1C       		.byte	0x1c
 928 048c 14       		.uleb128 0x14
 929 048d 6C7200   		.ascii	"lr\000"
 930 0490 0A       		.byte	0xa
 931 0491 1901     		.2byte	0x119
 932 0493 11040000 		.4byte	0x411
 933 0497 20       		.byte	0x20
 934 0498 00       		.byte	0
 935 0499 15       		.uleb128 0x15
 936 049a 97050000 		.4byte	.LASF79
 937 049e 04       		.byte	0x4
 938 049f 0A       		.byte	0xa
 939 04a0 2301     		.2byte	0x123
 940 04a2 B4040000 		.4byte	0x4b4
 941 04a6 14       		.uleb128 0x14
 942 04a7 72313300 		.ascii	"r13\000"
 943 04ab 0A       		.byte	0xa
 944 04ac 2401     		.2byte	0x124
 945 04ae B4040000 		.4byte	0x4b4
 946 04b2 00       		.byte	0
 947 04b3 00       		.byte	0
 948 04b4 12       		.uleb128 0x12
 949 04b5 04       		.byte	0x4
 950 04b6 1E040000 		.4byte	0x41e
 951 04ba 05       		.uleb128 0x5
 952 04bb 7B020000 		.4byte	0x27b
 953 04bf 0C       		.uleb128 0xc
 954 04c0 97020000 		.4byte	.LASF80
 955 04c4 10       		.byte	0x10
 956 04c5 0B       		.byte	0xb
 957 04c6 2C       		.byte	0x2c
 958 04c7 F0040000 		.4byte	0x4f0
 959 04cb 0F       		.uleb128 0xf
 960 04cc E7000000 		.4byte	.LASF81
 961 04d0 0B       		.byte	0xb
 962 04d1 2D       		.byte	0x2d
ARM GAS  /tmp/cc3ZbfiP.s 			page 18


 963 04d2 E2030000 		.4byte	0x3e2
 964 04d6 00       		.byte	0
 965 04d7 0F       		.uleb128 0xf
 966 04d8 51060000 		.4byte	.LASF82
 967 04dc 0B       		.byte	0xb
 968 04dd 2F       		.byte	0x2f
 969 04de DC030000 		.4byte	0x3dc
 970 04e2 08       		.byte	0x8
 971 04e3 0F       		.uleb128 0xf
 972 04e4 5A050000 		.4byte	.LASF83
 973 04e8 0B       		.byte	0xb
 974 04e9 31       		.byte	0x31
 975 04ea F0040000 		.4byte	0x4f0
 976 04ee 0C       		.byte	0xc
 977 04ef 00       		.byte	0
 978 04f0 12       		.uleb128 0x12
 979 04f1 04       		.byte	0x4
 980 04f2 BF040000 		.4byte	0x4bf
 981 04f6 03       		.uleb128 0x3
 982 04f7 97020000 		.4byte	.LASF80
 983 04fb 0B       		.byte	0xb
 984 04fc 33       		.byte	0x33
 985 04fd BF040000 		.4byte	0x4bf
 986 0501 03       		.uleb128 0x3
 987 0502 19060000 		.4byte	.LASF84
 988 0506 0C       		.byte	0xc
 989 0507 29       		.byte	0x29
 990 0508 0C050000 		.4byte	0x50c
 991 050c 0C       		.uleb128 0xc
 992 050d 19060000 		.4byte	.LASF84
 993 0511 0C       		.byte	0xc
 994 0512 0C       		.byte	0xc
 995 0513 2E       		.byte	0x2e
 996 0514 3D050000 		.4byte	0x53d
 997 0518 0F       		.uleb128 0xf
 998 0519 00020000 		.4byte	.LASF85
 999 051d 0C       		.byte	0xc
 1000 051e 2F       		.byte	0x2f
 1001 051f 3D050000 		.4byte	0x53d
 1002 0523 00       		.byte	0
 1003 0524 0F       		.uleb128 0xf
 1004 0525 2E060000 		.4byte	.LASF86
 1005 0529 0C       		.byte	0xc
 1006 052a 32       		.byte	0x32
 1007 052b DC030000 		.4byte	0x3dc
 1008 052f 04       		.byte	0x4
 1009 0530 0F       		.uleb128 0xf
 1010 0531 DB030000 		.4byte	.LASF87
 1011 0535 0C       		.byte	0xc
 1012 0536 34       		.byte	0x34
 1013 0537 70020000 		.4byte	0x270
 1014 053b 08       		.byte	0x8
 1015 053c 00       		.byte	0
 1016 053d 12       		.uleb128 0x12
 1017 053e 04       		.byte	0x4
 1018 053f 0C050000 		.4byte	0x50c
 1019 0543 0C       		.uleb128 0xc
ARM GAS  /tmp/cc3ZbfiP.s 			page 19


 1020 0544 84010000 		.4byte	.LASF88
 1021 0548 04       		.byte	0x4
 1022 0549 0C       		.byte	0xc
 1023 054a 3C       		.byte	0x3c
 1024 054b 5C050000 		.4byte	0x55c
 1025 054f 0F       		.uleb128 0xf
 1026 0550 D9050000 		.4byte	.LASF89
 1027 0554 0C       		.byte	0xc
 1028 0555 3D       		.byte	0x3d
 1029 0556 5C050000 		.4byte	0x55c
 1030 055a 00       		.byte	0
 1031 055b 00       		.byte	0
 1032 055c 12       		.uleb128 0x12
 1033 055d 04       		.byte	0x4
 1034 055e 01050000 		.4byte	0x501
 1035 0562 03       		.uleb128 0x3
 1036 0563 84010000 		.4byte	.LASF88
 1037 0567 0C       		.byte	0xc
 1038 0568 40       		.byte	0x40
 1039 0569 43050000 		.4byte	0x543
 1040 056d 12       		.uleb128 0x12
 1041 056e 04       		.byte	0x4
 1042 056f 91020000 		.4byte	0x291
 1043 0573 12       		.uleb128 0x12
 1044 0574 04       		.byte	0x4
 1045 0575 79050000 		.4byte	0x579
 1046 0579 16       		.uleb128 0x16
 1047 057a 7E050000 		.4byte	0x57e
 1048 057e 02       		.uleb128 0x2
 1049 057f 01       		.byte	0x1
 1050 0580 08       		.byte	0x8
 1051 0581 47050000 		.4byte	.LASF90
 1052 0585 12       		.uleb128 0x12
 1053 0586 04       		.byte	0x4
 1054 0587 F6040000 		.4byte	0x4f6
 1055 058b 03       		.uleb128 0x3
 1056 058c 48020000 		.4byte	.LASF91
 1057 0590 0D       		.byte	0xd
 1058 0591 37       		.byte	0x37
 1059 0592 96050000 		.4byte	0x596
 1060 0596 0C       		.uleb128 0xc
 1061 0597 48020000 		.4byte	.LASF91
 1062 059b 20       		.byte	0x20
 1063 059c 0D       		.byte	0xd
 1064 059d 45       		.byte	0x45
 1065 059e F7050000 		.4byte	0x5f7
 1066 05a2 0F       		.uleb128 0xf
 1067 05a3 A0000000 		.4byte	.LASF92
 1068 05a7 0D       		.byte	0xd
 1069 05a8 46       		.byte	0x46
 1070 05a9 E2030000 		.4byte	0x3e2
 1071 05ad 00       		.byte	0
 1072 05ae 0F       		.uleb128 0xf
 1073 05af 85020000 		.4byte	.LASF93
 1074 05b3 0D       		.byte	0xd
 1075 05b4 47       		.byte	0x47
 1076 05b5 23020000 		.4byte	0x223
ARM GAS  /tmp/cc3ZbfiP.s 			page 20


 1077 05b9 08       		.byte	0x8
 1078 05ba 0F       		.uleb128 0xf
 1079 05bb 27010000 		.4byte	.LASF94
 1080 05bf 0D       		.byte	0xd
 1081 05c0 48       		.byte	0x48
 1082 05c1 19060000 		.4byte	0x619
 1083 05c5 0C       		.byte	0xc
 1084 05c6 0F       		.uleb128 0xf
 1085 05c7 CC050000 		.4byte	.LASF95
 1086 05cb 0D       		.byte	0xd
 1087 05cc 49       		.byte	0x49
 1088 05cd 19060000 		.4byte	0x619
 1089 05d1 10       		.byte	0x10
 1090 05d2 0F       		.uleb128 0xf
 1091 05d3 30010000 		.4byte	.LASF96
 1092 05d7 0D       		.byte	0xd
 1093 05d8 4B       		.byte	0x4b
 1094 05d9 19060000 		.4byte	0x619
 1095 05dd 14       		.byte	0x14
 1096 05de 0F       		.uleb128 0xf
 1097 05df 4B040000 		.4byte	.LASF97
 1098 05e3 0D       		.byte	0xd
 1099 05e4 4C       		.byte	0x4c
 1100 05e5 19060000 		.4byte	0x619
 1101 05e9 18       		.byte	0x18
 1102 05ea 0F       		.uleb128 0xf
 1103 05eb E1050000 		.4byte	.LASF98
 1104 05ef 0D       		.byte	0xd
 1105 05f0 4D       		.byte	0x4d
 1106 05f1 F7050000 		.4byte	0x5f7
 1107 05f5 1C       		.byte	0x1c
 1108 05f6 00       		.byte	0
 1109 05f7 03       		.uleb128 0x3
 1110 05f8 7A010000 		.4byte	.LASF99
 1111 05fc 0D       		.byte	0xd
 1112 05fd 3A       		.byte	0x3a
 1113 05fe 02060000 		.4byte	0x602
 1114 0602 12       		.uleb128 0x12
 1115 0603 04       		.byte	0x4
 1116 0604 08060000 		.4byte	0x608
 1117 0608 17       		.uleb128 0x17
 1118 0609 13060000 		.4byte	0x613
 1119 060d 18       		.uleb128 0x18
 1120 060e 13060000 		.4byte	0x613
 1121 0612 00       		.byte	0
 1122 0613 12       		.uleb128 0x12
 1123 0614 04       		.byte	0x4
 1124 0615 8B050000 		.4byte	0x58b
 1125 0619 12       		.uleb128 0x12
 1126 061a 04       		.byte	0x4
 1127 061b 8C000000 		.4byte	0x8c
 1128 061f 03       		.uleb128 0x3
 1129 0620 3D020000 		.4byte	.LASF100
 1130 0624 0D       		.byte	0xd
 1131 0625 76       		.byte	0x76
 1132 0626 8B050000 		.4byte	0x58b
 1133 062a 03       		.uleb128 0x3
ARM GAS  /tmp/cc3ZbfiP.s 			page 21


 1134 062b 22000000 		.4byte	.LASF101
 1135 062f 0D       		.byte	0xd
 1136 0630 E6       		.byte	0xe6
 1137 0631 8B050000 		.4byte	0x58b
 1138 0635 19       		.uleb128 0x19
 1139 0636 23020000 		.4byte	0x223
 1140 063a 4E060000 		.4byte	0x64e
 1141 063e 18       		.uleb128 0x18
 1142 063f 1C040000 		.4byte	0x41c
 1143 0643 18       		.uleb128 0x18
 1144 0644 4E060000 		.4byte	0x64e
 1145 0648 18       		.uleb128 0x18
 1146 0649 23020000 		.4byte	0x223
 1147 064d 00       		.byte	0
 1148 064e 12       		.uleb128 0x12
 1149 064f 04       		.byte	0x4
 1150 0650 54060000 		.4byte	0x654
 1151 0654 16       		.uleb128 0x16
 1152 0655 8C000000 		.4byte	0x8c
 1153 0659 12       		.uleb128 0x12
 1154 065a 04       		.byte	0x4
 1155 065b 35060000 		.4byte	0x635
 1156 065f 19       		.uleb128 0x19
 1157 0660 23020000 		.4byte	0x223
 1158 0664 78060000 		.4byte	0x678
 1159 0668 18       		.uleb128 0x18
 1160 0669 1C040000 		.4byte	0x41c
 1161 066d 18       		.uleb128 0x18
 1162 066e 19060000 		.4byte	0x619
 1163 0672 18       		.uleb128 0x18
 1164 0673 23020000 		.4byte	0x223
 1165 0677 00       		.byte	0
 1166 0678 12       		.uleb128 0x12
 1167 0679 04       		.byte	0x4
 1168 067a 5F060000 		.4byte	0x65f
 1169 067e 0C       		.uleb128 0xc
 1170 067f 6E000000 		.4byte	.LASF102
 1171 0683 20       		.byte	0x20
 1172 0684 0E       		.byte	0xe
 1173 0685 51       		.byte	0x51
 1174 0686 EB060000 		.4byte	0x6eb
 1175 068a 0F       		.uleb128 0xf
 1176 068b 62020000 		.4byte	.LASF103
 1177 068f 0E       		.byte	0xe
 1178 0690 52       		.byte	0x52
 1179 0691 59060000 		.4byte	0x659
 1180 0695 00       		.byte	0
 1181 0696 0F       		.uleb128 0xf
 1182 0697 42050000 		.4byte	.LASF104
 1183 069b 0E       		.byte	0xe
 1184 069c 52       		.byte	0x52
 1185 069d 78060000 		.4byte	0x678
 1186 06a1 04       		.byte	0x4
 1187 06a2 0F       		.uleb128 0xf
 1188 06a3 47010000 		.4byte	.LASF105
 1189 06a7 0E       		.byte	0xe
 1190 06a8 52       		.byte	0x52
ARM GAS  /tmp/cc3ZbfiP.s 			page 22


 1191 06a9 FA060000 		.4byte	0x6fa
 1192 06ad 08       		.byte	0x8
 1193 06ae 0F       		.uleb128 0xf
 1194 06af 3A060000 		.4byte	.LASF106
 1195 06b3 0E       		.byte	0xe
 1196 06b4 52       		.byte	0x52
 1197 06b5 FA060000 		.4byte	0x6fa
 1198 06b9 0C       		.byte	0xc
 1199 06ba 10       		.uleb128 0x10
 1200 06bb 70757400 		.ascii	"put\000"
 1201 06bf 0E       		.byte	0xe
 1202 06c0 52       		.byte	0x52
 1203 06c1 19070000 		.4byte	0x719
 1204 06c5 10       		.byte	0x10
 1205 06c6 10       		.uleb128 0x10
 1206 06c7 67657400 		.ascii	"get\000"
 1207 06cb 0E       		.byte	0xe
 1208 06cc 52       		.byte	0x52
 1209 06cd 33070000 		.4byte	0x733
 1210 06d1 14       		.byte	0x14
 1211 06d2 0F       		.uleb128 0xf
 1212 06d3 08020000 		.4byte	.LASF107
 1213 06d7 0E       		.byte	0xe
 1214 06d8 52       		.byte	0x52
 1215 06d9 57070000 		.4byte	0x757
 1216 06dd 18       		.byte	0x18
 1217 06de 0F       		.uleb128 0xf
 1218 06df 9A000000 		.4byte	.LASF108
 1219 06e3 0E       		.byte	0xe
 1220 06e4 52       		.byte	0x52
 1221 06e5 7B070000 		.4byte	0x77b
 1222 06e9 1C       		.byte	0x1c
 1223 06ea 00       		.byte	0
 1224 06eb 19       		.uleb128 0x19
 1225 06ec 2E020000 		.4byte	0x22e
 1226 06f0 FA060000 		.4byte	0x6fa
 1227 06f4 18       		.uleb128 0x18
 1228 06f5 1C040000 		.4byte	0x41c
 1229 06f9 00       		.byte	0
 1230 06fa 12       		.uleb128 0x12
 1231 06fb 04       		.byte	0x4
 1232 06fc EB060000 		.4byte	0x6eb
 1233 0700 19       		.uleb128 0x19
 1234 0701 65020000 		.4byte	0x265
 1235 0705 19070000 		.4byte	0x719
 1236 0709 18       		.uleb128 0x18
 1237 070a 1C040000 		.4byte	0x41c
 1238 070e 18       		.uleb128 0x18
 1239 070f 8C000000 		.4byte	0x8c
 1240 0713 18       		.uleb128 0x18
 1241 0714 7B020000 		.4byte	0x27b
 1242 0718 00       		.byte	0
 1243 0719 12       		.uleb128 0x12
 1244 071a 04       		.byte	0x4
 1245 071b 00070000 		.4byte	0x700
 1246 071f 19       		.uleb128 0x19
 1247 0720 65020000 		.4byte	0x265
ARM GAS  /tmp/cc3ZbfiP.s 			page 23


 1248 0724 33070000 		.4byte	0x733
 1249 0728 18       		.uleb128 0x18
 1250 0729 1C040000 		.4byte	0x41c
 1251 072d 18       		.uleb128 0x18
 1252 072e 7B020000 		.4byte	0x27b
 1253 0732 00       		.byte	0
 1254 0733 12       		.uleb128 0x12
 1255 0734 04       		.byte	0x4
 1256 0735 1F070000 		.4byte	0x71f
 1257 0739 19       		.uleb128 0x19
 1258 073a 23020000 		.4byte	0x223
 1259 073e 57070000 		.4byte	0x757
 1260 0742 18       		.uleb128 0x18
 1261 0743 1C040000 		.4byte	0x41c
 1262 0747 18       		.uleb128 0x18
 1263 0748 4E060000 		.4byte	0x64e
 1264 074c 18       		.uleb128 0x18
 1265 074d 23020000 		.4byte	0x223
 1266 0751 18       		.uleb128 0x18
 1267 0752 7B020000 		.4byte	0x27b
 1268 0756 00       		.byte	0
 1269 0757 12       		.uleb128 0x12
 1270 0758 04       		.byte	0x4
 1271 0759 39070000 		.4byte	0x739
 1272 075d 19       		.uleb128 0x19
 1273 075e 23020000 		.4byte	0x223
 1274 0762 7B070000 		.4byte	0x77b
 1275 0766 18       		.uleb128 0x18
 1276 0767 1C040000 		.4byte	0x41c
 1277 076b 18       		.uleb128 0x18
 1278 076c 19060000 		.4byte	0x619
 1279 0770 18       		.uleb128 0x18
 1280 0771 23020000 		.4byte	0x223
 1281 0775 18       		.uleb128 0x18
 1282 0776 7B020000 		.4byte	0x27b
 1283 077a 00       		.byte	0
 1284 077b 12       		.uleb128 0x12
 1285 077c 04       		.byte	0x4
 1286 077d 5D070000 		.4byte	0x75d
 1287 0781 11       		.uleb128 0x11
 1288 0782 04       		.byte	0x4
 1289 0783 0E       		.byte	0xe
 1290 0784 5C       		.byte	0x5c
 1291 0785 69040000 		.4byte	.LASF109
 1292 0789 9A070000 		.4byte	0x79a
 1293 078d 10       		.uleb128 0x10
 1294 078e 766D7400 		.ascii	"vmt\000"
 1295 0792 0E       		.byte	0xe
 1296 0793 5E       		.byte	0x5e
 1297 0794 9A070000 		.4byte	0x79a
 1298 0798 00       		.byte	0
 1299 0799 00       		.byte	0
 1300 079a 12       		.uleb128 0x12
 1301 079b 04       		.byte	0x4
 1302 079c A0070000 		.4byte	0x7a0
 1303 07a0 16       		.uleb128 0x16
 1304 07a1 7E060000 		.4byte	0x67e
ARM GAS  /tmp/cc3ZbfiP.s 			page 24


 1305 07a5 03       		.uleb128 0x3
 1306 07a6 FE050000 		.4byte	.LASF110
 1307 07aa 0E       		.byte	0xe
 1308 07ab 60       		.byte	0x60
 1309 07ac 81070000 		.4byte	0x781
 1310 07b0 0B       		.uleb128 0xb
 1311 07b1 BA020000 		.4byte	.LASF111
 1312 07b5 0E       		.byte	0xe
 1313 07b6 0B01     		.2byte	0x10b
 1314 07b8 AD000000 		.4byte	0xad
 1315 07bc 19       		.uleb128 0x19
 1316 07bd B0070000 		.4byte	0x7b0
 1317 07c1 CB070000 		.4byte	0x7cb
 1318 07c5 18       		.uleb128 0x18
 1319 07c6 1C040000 		.4byte	0x41c
 1320 07ca 00       		.byte	0
 1321 07cb 12       		.uleb128 0x12
 1322 07cc 04       		.byte	0x4
 1323 07cd BC070000 		.4byte	0x7bc
 1324 07d1 1A       		.uleb128 0x1a
 1325 07d2 01       		.byte	0x1
 1326 07d3 0F       		.byte	0xf
 1327 07d4 64       		.byte	0x64
 1328 07d5 10000000 		.4byte	.LASF148
 1329 07d9 F0070000 		.4byte	0x7f0
 1330 07dd 1B       		.uleb128 0x1b
 1331 07de F5040000 		.4byte	.LASF112
 1332 07e2 00       		.sleb128 0
 1333 07e3 1B       		.uleb128 0x1b
 1334 07e4 D2040000 		.4byte	.LASF113
 1335 07e8 01       		.sleb128 1
 1336 07e9 1B       		.uleb128 0x1b
 1337 07ea BD050000 		.4byte	.LASF114
 1338 07ee 02       		.sleb128 2
 1339 07ef 00       		.byte	0
 1340 07f0 03       		.uleb128 0x3
 1341 07f1 11050000 		.4byte	.LASF115
 1342 07f5 0F       		.byte	0xf
 1343 07f6 68       		.byte	0x68
 1344 07f7 D1070000 		.4byte	0x7d1
 1345 07fb 03       		.uleb128 0x3
 1346 07fc 1B050000 		.4byte	.LASF116
 1347 0800 0F       		.byte	0xf
 1348 0801 6D       		.byte	0x6d
 1349 0802 06080000 		.4byte	0x806
 1350 0806 0C       		.uleb128 0xc
 1351 0807 1B050000 		.4byte	.LASF116
 1352 080b 74       		.byte	0x74
 1353 080c 0F       		.byte	0xf
 1354 080d 87       		.byte	0x87
 1355 080e 7D080000 		.4byte	0x87d
 1356 0812 10       		.uleb128 0x10
 1357 0813 766D7400 		.ascii	"vmt\000"
 1358 0817 0F       		.byte	0xf
 1359 0818 89       		.byte	0x89
 1360 0819 26090000 		.4byte	0x926
 1361 081d 00       		.byte	0
ARM GAS  /tmp/cc3ZbfiP.s 			page 25


 1362 081e 0F       		.uleb128 0xf
 1363 081f DA010000 		.4byte	.LASF117
 1364 0823 0F       		.byte	0xf
 1365 0824 8A       		.byte	0x8a
 1366 0825 62050000 		.4byte	0x562
 1367 0829 04       		.byte	0x4
 1368 082a 0F       		.uleb128 0xf
 1369 082b 0A060000 		.4byte	.LASF118
 1370 082f 0F       		.byte	0xf
 1371 0830 8A       		.byte	0x8a
 1372 0831 B0070000 		.4byte	0x7b0
 1373 0835 08       		.byte	0x8
 1374 0836 0F       		.uleb128 0xf
 1375 0837 FD000000 		.4byte	.LASF119
 1376 083b 0F       		.byte	0xf
 1377 083c 8A       		.byte	0x8a
 1378 083d F0070000 		.4byte	0x7f0
 1379 0841 0C       		.byte	0xc
 1380 0842 0F       		.uleb128 0xf
 1381 0843 AD010000 		.4byte	.LASF120
 1382 0847 0F       		.byte	0xf
 1383 0848 8A       		.byte	0x8a
 1384 0849 1F060000 		.4byte	0x61f
 1385 084d 10       		.byte	0x10
 1386 084e 0F       		.uleb128 0xf
 1387 084f F9010000 		.4byte	.LASF121
 1388 0853 0F       		.byte	0xf
 1389 0854 8A       		.byte	0x8a
 1390 0855 2A060000 		.4byte	0x62a
 1391 0859 30       		.byte	0x30
 1392 085a 10       		.uleb128 0x10
 1393 085b 696200   		.ascii	"ib\000"
 1394 085e 0F       		.byte	0xf
 1395 085f 8A       		.byte	0x8a
 1396 0860 31090000 		.4byte	0x931
 1397 0864 50       		.byte	0x50
 1398 0865 10       		.uleb128 0x10
 1399 0866 6F6200   		.ascii	"ob\000"
 1400 0869 0F       		.byte	0xf
 1401 086a 8A       		.byte	0x8a
 1402 086b 31090000 		.4byte	0x931
 1403 086f 60       		.byte	0x60
 1404 0870 0F       		.uleb128 0xf
 1405 0871 0F040000 		.4byte	.LASF122
 1406 0875 0F       		.byte	0xf
 1407 0876 8A       		.byte	0x8a
 1408 0877 41090000 		.4byte	0x941
 1409 087b 70       		.byte	0x70
 1410 087c 00       		.byte	0
 1411 087d 11       		.uleb128 0x11
 1412 087e 08       		.byte	0x8
 1413 087f 10       		.byte	0x10
 1414 0880 58       		.byte	0x58
 1415 0881 3F000000 		.4byte	.LASF123
 1416 0885 A2080000 		.4byte	0x8a2
 1417 0889 0F       		.uleb128 0xf
 1418 088a 85050000 		.4byte	.LASF124
ARM GAS  /tmp/cc3ZbfiP.s 			page 26


 1419 088e 10       		.byte	0x10
 1420 088f 5D       		.byte	0x5d
 1421 0890 A2000000 		.4byte	0xa2
 1422 0894 00       		.byte	0
 1423 0895 0F       		.uleb128 0xf
 1424 0896 9D020000 		.4byte	.LASF125
 1425 089a 10       		.byte	0x10
 1426 089b 62       		.byte	0x62
 1427 089c A2000000 		.4byte	0xa2
 1428 08a0 04       		.byte	0x4
 1429 08a1 00       		.byte	0
 1430 08a2 03       		.uleb128 0x3
 1431 08a3 02040000 		.4byte	.LASF126
 1432 08a7 10       		.byte	0x10
 1433 08a8 63       		.byte	0x63
 1434 08a9 7D080000 		.4byte	0x87d
 1435 08ad 0C       		.uleb128 0xc
 1436 08ae 9D010000 		.4byte	.LASF127
 1437 08b2 24       		.byte	0x24
 1438 08b3 0F       		.byte	0xf
 1439 08b4 7C       		.byte	0x7c
 1440 08b5 26090000 		.4byte	0x926
 1441 08b9 0F       		.uleb128 0xf
 1442 08ba 62020000 		.4byte	.LASF103
 1443 08be 0F       		.byte	0xf
 1444 08bf 7D       		.byte	0x7d
 1445 08c0 59060000 		.4byte	0x659
 1446 08c4 00       		.byte	0
 1447 08c5 0F       		.uleb128 0xf
 1448 08c6 42050000 		.4byte	.LASF104
 1449 08ca 0F       		.byte	0xf
 1450 08cb 7D       		.byte	0x7d
 1451 08cc 78060000 		.4byte	0x678
 1452 08d0 04       		.byte	0x4
 1453 08d1 0F       		.uleb128 0xf
 1454 08d2 47010000 		.4byte	.LASF105
 1455 08d6 0F       		.byte	0xf
 1456 08d7 7D       		.byte	0x7d
 1457 08d8 FA060000 		.4byte	0x6fa
 1458 08dc 08       		.byte	0x8
 1459 08dd 0F       		.uleb128 0xf
 1460 08de 3A060000 		.4byte	.LASF106
 1461 08e2 0F       		.byte	0xf
 1462 08e3 7D       		.byte	0x7d
 1463 08e4 FA060000 		.4byte	0x6fa
 1464 08e8 0C       		.byte	0xc
 1465 08e9 10       		.uleb128 0x10
 1466 08ea 70757400 		.ascii	"put\000"
 1467 08ee 0F       		.byte	0xf
 1468 08ef 7D       		.byte	0x7d
 1469 08f0 19070000 		.4byte	0x719
 1470 08f4 10       		.byte	0x10
 1471 08f5 10       		.uleb128 0x10
 1472 08f6 67657400 		.ascii	"get\000"
 1473 08fa 0F       		.byte	0xf
 1474 08fb 7D       		.byte	0x7d
 1475 08fc 33070000 		.4byte	0x733
ARM GAS  /tmp/cc3ZbfiP.s 			page 27


 1476 0900 14       		.byte	0x14
 1477 0901 0F       		.uleb128 0xf
 1478 0902 08020000 		.4byte	.LASF107
 1479 0906 0F       		.byte	0xf
 1480 0907 7D       		.byte	0x7d
 1481 0908 57070000 		.4byte	0x757
 1482 090c 18       		.byte	0x18
 1483 090d 0F       		.uleb128 0xf
 1484 090e 9A000000 		.4byte	.LASF108
 1485 0912 0F       		.byte	0xf
 1486 0913 7D       		.byte	0x7d
 1487 0914 7B070000 		.4byte	0x77b
 1488 0918 1C       		.byte	0x1c
 1489 0919 0F       		.uleb128 0xf
 1490 091a 8E050000 		.4byte	.LASF128
 1491 091e 0F       		.byte	0xf
 1492 091f 7D       		.byte	0x7d
 1493 0920 CB070000 		.4byte	0x7cb
 1494 0924 20       		.byte	0x20
 1495 0925 00       		.byte	0
 1496 0926 12       		.uleb128 0x12
 1497 0927 04       		.byte	0x4
 1498 0928 2C090000 		.4byte	0x92c
 1499 092c 16       		.uleb128 0x16
 1500 092d AD080000 		.4byte	0x8ad
 1501 0931 09       		.uleb128 0x9
 1502 0932 37000000 		.4byte	0x37
 1503 0936 41090000 		.4byte	0x941
 1504 093a 0A       		.uleb128 0xa
 1505 093b DE000000 		.4byte	0xde
 1506 093f 0F       		.byte	0xf
 1507 0940 00       		.byte	0
 1508 0941 12       		.uleb128 0x12
 1509 0942 04       		.byte	0x4
 1510 0943 17020000 		.4byte	0x217
 1511 0947 12       		.uleb128 0x12
 1512 0948 04       		.byte	0x4
 1513 0949 7E050000 		.4byte	0x57e
 1514 094d 1C       		.uleb128 0x1c
 1515 094e A3020000 		.4byte	.LASF149
 1516 0952 01       		.byte	0x1
 1517 0953 26       		.byte	0x26
 1518 0954 7E000000 		.4byte	0x7e
 1519 0958 00000000 		.4byte	.LFB37
 1520 095c 8C010000 		.4byte	.LFE37-.LFB37
 1521 0960 01       		.uleb128 0x1
 1522 0961 9C       		.byte	0x9c
 1523 0962 8D0C0000 		.4byte	0xc8d
 1524 0966 1D       		.uleb128 0x1d
 1525 0967 04000000 		.4byte	.LBB2
 1526 096b 88010000 		.4byte	.LBE2-.LBB2
 1527 096f 1E       		.uleb128 0x1e
 1528 0970 1C010000 		.4byte	.LASF129
 1529 0974 01       		.byte	0x1
 1530 0975 2E       		.byte	0x2e
 1531 0976 8D0C0000 		.4byte	0xc8d
 1532 097a 03       		.uleb128 0x3
ARM GAS  /tmp/cc3ZbfiP.s 			page 28


 1533 097b 91       		.byte	0x91
 1534 097c 8C7F     		.sleb128 -116
 1535 097e 1F       		.uleb128 0x1f
 1536 097f 9F050000 		.4byte	.LASF130
 1537 0983 01       		.byte	0x1
 1538 0984 2F       		.byte	0x2f
 1539 0985 A2000000 		.4byte	0xa2
 1540 0989 00000000 		.4byte	.LLST0
 1541 098d 1E       		.uleb128 0x1e
 1542 098e EA050000 		.4byte	.LASF131
 1543 0992 01       		.byte	0x1
 1544 0993 30       		.byte	0x30
 1545 0994 9D0C0000 		.4byte	0xc9d
 1546 0998 03       		.uleb128 0x3
 1547 0999 91       		.byte	0x91
 1548 099a 8C7E     		.sleb128 -244
 1549 099c 1E       		.uleb128 0x1e
 1550 099d C2040000 		.4byte	.LASF132
 1551 09a1 01       		.byte	0x1
 1552 09a2 31       		.byte	0x31
 1553 09a3 9D0C0000 		.4byte	0xc9d
 1554 09a7 03       		.uleb128 0x3
 1555 09a8 91       		.byte	0x91
 1556 09a9 CC7E     		.sleb128 -180
 1557 09ab 20       		.uleb128 0x20
 1558 09ac 1E000000 		.4byte	.LBB3
 1559 09b0 6E010000 		.4byte	.LBE3-.LBB3
 1560 09b4 570C0000 		.4byte	0xc57
 1561 09b8 21       		.uleb128 0x21
 1562 09b9 6900     		.ascii	"i\000"
 1563 09bb 01       		.byte	0x1
 1564 09bc 34       		.byte	0x34
 1565 09bd 7E000000 		.4byte	0x7e
 1566 09c1 44000000 		.4byte	.LLST1
 1567 09c5 21       		.uleb128 0x21
 1568 09c6 6A00     		.ascii	"j\000"
 1569 09c8 01       		.byte	0x1
 1570 09c9 35       		.byte	0x35
 1571 09ca 7E000000 		.4byte	0x7e
 1572 09ce 58000000 		.4byte	.LLST2
 1573 09d2 1F       		.uleb128 0x1f
 1574 09d3 0F020000 		.4byte	.LASF133
 1575 09d7 01       		.byte	0x1
 1576 09d8 36       		.byte	0x36
 1577 09d9 7E050000 		.4byte	0x57e
 1578 09dd 78000000 		.4byte	.LLST3
 1579 09e1 20       		.uleb128 0x20
 1580 09e2 4C000000 		.4byte	.LBB5
 1581 09e6 40010000 		.4byte	.LBE5-.LBB5
 1582 09ea 460C0000 		.4byte	0xc46
 1583 09ee 1F       		.uleb128 0x1f
 1584 09ef 8F020000 		.4byte	.LASF134
 1585 09f3 01       		.byte	0x1
 1586 09f4 40       		.byte	0x40
 1587 09f5 47090000 		.4byte	0x947
 1588 09f9 8B000000 		.4byte	.LLST4
 1589 09fd 1F       		.uleb128 0x1f
ARM GAS  /tmp/cc3ZbfiP.s 			page 29


 1590 09fe 3B040000 		.4byte	.LASF135
 1591 0a02 01       		.byte	0x1
 1592 0a03 41       		.byte	0x41
 1593 0a04 47090000 		.4byte	0x947
 1594 0a08 A9000000 		.4byte	.LLST5
 1595 0a0c 20       		.uleb128 0x20
 1596 0a0d 6A000000 		.4byte	.LBB7
 1597 0a11 50000000 		.4byte	.LBE7-.LBB7
 1598 0a15 CC0A0000 		.4byte	0xacc
 1599 0a19 21       		.uleb128 0x21
 1600 0a1a 707400   		.ascii	"pt\000"
 1601 0a1d 01       		.byte	0x1
 1602 0a1e 46       		.byte	0x46
 1603 0a1f 47090000 		.4byte	0x947
 1604 0a23 BC000000 		.4byte	.LLST6
 1605 0a27 22       		.uleb128 0x22
 1606 0a28 72000000 		.4byte	.LVL19
 1607 0a2c EF0C0000 		.4byte	0xcef
 1608 0a30 450A0000 		.4byte	0xa45
 1609 0a34 23       		.uleb128 0x23
 1610 0a35 01       		.uleb128 0x1
 1611 0a36 51       		.byte	0x51
 1612 0a37 05       		.uleb128 0x5
 1613 0a38 03       		.byte	0x3
 1614 0a39 10000000 		.4byte	.LC2
 1615 0a3d 23       		.uleb128 0x23
 1616 0a3e 01       		.uleb128 0x1
 1617 0a3f 50       		.byte	0x50
 1618 0a40 03       		.uleb128 0x3
 1619 0a41 91       		.byte	0x91
 1620 0a42 8C7F     		.sleb128 -116
 1621 0a44 00       		.byte	0
 1622 0a45 22       		.uleb128 0x22
 1623 0a46 84000000 		.4byte	.LVL22
 1624 0a4a EF0C0000 		.4byte	0xcef
 1625 0a4e 610A0000 		.4byte	0xa61
 1626 0a52 23       		.uleb128 0x23
 1627 0a53 01       		.uleb128 0x1
 1628 0a54 51       		.byte	0x51
 1629 0a55 05       		.uleb128 0x5
 1630 0a56 03       		.byte	0x3
 1631 0a57 10000000 		.4byte	.LC2
 1632 0a5b 23       		.uleb128 0x23
 1633 0a5c 01       		.uleb128 0x1
 1634 0a5d 50       		.byte	0x50
 1635 0a5e 01       		.uleb128 0x1
 1636 0a5f 30       		.byte	0x30
 1637 0a60 00       		.byte	0
 1638 0a61 22       		.uleb128 0x22
 1639 0a62 92000000 		.4byte	.LVL24
 1640 0a66 090D0000 		.4byte	0xd09
 1641 0a6a 780A0000 		.4byte	0xa78
 1642 0a6e 23       		.uleb128 0x23
 1643 0a6f 01       		.uleb128 0x1
 1644 0a70 51       		.byte	0x51
 1645 0a71 05       		.uleb128 0x5
 1646 0a72 03       		.byte	0x3
ARM GAS  /tmp/cc3ZbfiP.s 			page 30


 1647 0a73 14000000 		.4byte	.LC3
 1648 0a77 00       		.byte	0
 1649 0a78 24       		.uleb128 0x24
 1650 0a79 9A000000 		.4byte	.LVL25
 1651 0a7d 090D0000 		.4byte	0xd09
 1652 0a81 22       		.uleb128 0x22
 1653 0a82 A2000000 		.4byte	.LVL26
 1654 0a86 090D0000 		.4byte	0xd09
 1655 0a8a 980A0000 		.4byte	0xa98
 1656 0a8e 23       		.uleb128 0x23
 1657 0a8f 01       		.uleb128 0x1
 1658 0a90 51       		.byte	0x51
 1659 0a91 05       		.uleb128 0x5
 1660 0a92 03       		.byte	0x3
 1661 0a93 1C000000 		.4byte	.LC4
 1662 0a97 00       		.byte	0
 1663 0a98 22       		.uleb128 0x22
 1664 0a99 AA000000 		.4byte	.LVL27
 1665 0a9d 090D0000 		.4byte	0xd09
 1666 0aa1 AF0A0000 		.4byte	0xaaf
 1667 0aa5 23       		.uleb128 0x23
 1668 0aa6 01       		.uleb128 0x1
 1669 0aa7 51       		.byte	0x51
 1670 0aa8 05       		.uleb128 0x5
 1671 0aa9 03       		.byte	0x3
 1672 0aaa 20000000 		.4byte	.LC5
 1673 0aae 00       		.byte	0
 1674 0aaf 24       		.uleb128 0x24
 1675 0ab0 B2000000 		.4byte	.LVL28
 1676 0ab4 090D0000 		.4byte	0xd09
 1677 0ab8 25       		.uleb128 0x25
 1678 0ab9 BA000000 		.4byte	.LVL29
 1679 0abd 090D0000 		.4byte	0xd09
 1680 0ac1 23       		.uleb128 0x23
 1681 0ac2 01       		.uleb128 0x1
 1682 0ac3 51       		.byte	0x51
 1683 0ac4 05       		.uleb128 0x5
 1684 0ac5 03       		.byte	0x3
 1685 0ac6 1C000000 		.4byte	.LC4
 1686 0aca 00       		.byte	0
 1687 0acb 00       		.byte	0
 1688 0acc 20       		.uleb128 0x20
 1689 0acd BE000000 		.4byte	.LBB9
 1690 0ad1 90000000 		.4byte	.LBE9-.LBB9
 1691 0ad5 0D0C0000 		.4byte	0xc0d
 1692 0ad9 21       		.uleb128 0x21
 1693 0ada 70743200 		.ascii	"pt2\000"
 1694 0ade 01       		.byte	0x1
 1695 0adf 55       		.byte	0x55
 1696 0ae0 47090000 		.4byte	0x947
 1697 0ae4 F1000000 		.4byte	.LLST7
 1698 0ae8 22       		.uleb128 0x22
 1699 0ae9 C6000000 		.4byte	.LVL30
 1700 0aed EF0C0000 		.4byte	0xcef
 1701 0af1 060B0000 		.4byte	0xb06
 1702 0af5 23       		.uleb128 0x23
 1703 0af6 01       		.uleb128 0x1
ARM GAS  /tmp/cc3ZbfiP.s 			page 31


 1704 0af7 51       		.byte	0x51
 1705 0af8 05       		.uleb128 0x5
 1706 0af9 03       		.byte	0x3
 1707 0afa 10000000 		.4byte	.LC2
 1708 0afe 23       		.uleb128 0x23
 1709 0aff 01       		.uleb128 0x1
 1710 0b00 50       		.byte	0x50
 1711 0b01 03       		.uleb128 0x3
 1712 0b02 91       		.byte	0x91
 1713 0b03 8C7F     		.sleb128 -116
 1714 0b05 00       		.byte	0
 1715 0b06 22       		.uleb128 0x22
 1716 0b07 D8000000 		.4byte	.LVL33
 1717 0b0b EF0C0000 		.4byte	0xcef
 1718 0b0f 220B0000 		.4byte	0xb22
 1719 0b13 23       		.uleb128 0x23
 1720 0b14 01       		.uleb128 0x1
 1721 0b15 51       		.byte	0x51
 1722 0b16 05       		.uleb128 0x5
 1723 0b17 03       		.byte	0x3
 1724 0b18 10000000 		.4byte	.LC2
 1725 0b1c 23       		.uleb128 0x23
 1726 0b1d 01       		.uleb128 0x1
 1727 0b1e 50       		.byte	0x50
 1728 0b1f 01       		.uleb128 0x1
 1729 0b20 30       		.byte	0x30
 1730 0b21 00       		.byte	0
 1731 0b22 22       		.uleb128 0x22
 1732 0b23 E6000000 		.4byte	.LVL35
 1733 0b27 090D0000 		.4byte	0xd09
 1734 0b2b 390B0000 		.4byte	0xb39
 1735 0b2f 23       		.uleb128 0x23
 1736 0b30 01       		.uleb128 0x1
 1737 0b31 51       		.byte	0x51
 1738 0b32 05       		.uleb128 0x5
 1739 0b33 03       		.byte	0x3
 1740 0b34 28000000 		.4byte	.LC6
 1741 0b38 00       		.byte	0
 1742 0b39 24       		.uleb128 0x24
 1743 0b3a EE000000 		.4byte	.LVL36
 1744 0b3e 090D0000 		.4byte	0xd09
 1745 0b42 24       		.uleb128 0x24
 1746 0b43 F6000000 		.4byte	.LVL37
 1747 0b47 090D0000 		.4byte	0xd09
 1748 0b4b 22       		.uleb128 0x22
 1749 0b4c FE000000 		.4byte	.LVL38
 1750 0b50 090D0000 		.4byte	0xd09
 1751 0b54 620B0000 		.4byte	0xb62
 1752 0b58 23       		.uleb128 0x23
 1753 0b59 01       		.uleb128 0x1
 1754 0b5a 51       		.byte	0x51
 1755 0b5b 05       		.uleb128 0x5
 1756 0b5c 03       		.byte	0x3
 1757 0b5d 1C000000 		.4byte	.LC4
 1758 0b61 00       		.byte	0
 1759 0b62 22       		.uleb128 0x22
 1760 0b63 06010000 		.4byte	.LVL39
ARM GAS  /tmp/cc3ZbfiP.s 			page 32


 1761 0b67 090D0000 		.4byte	0xd09
 1762 0b6b 790B0000 		.4byte	0xb79
 1763 0b6f 23       		.uleb128 0x23
 1764 0b70 01       		.uleb128 0x1
 1765 0b71 51       		.byte	0x51
 1766 0b72 05       		.uleb128 0x5
 1767 0b73 03       		.byte	0x3
 1768 0b74 30000000 		.4byte	.LC7
 1769 0b78 00       		.byte	0
 1770 0b79 24       		.uleb128 0x24
 1771 0b7a 0E010000 		.4byte	.LVL40
 1772 0b7e 090D0000 		.4byte	0xd09
 1773 0b82 24       		.uleb128 0x24
 1774 0b83 16010000 		.4byte	.LVL41
 1775 0b87 090D0000 		.4byte	0xd09
 1776 0b8b 22       		.uleb128 0x22
 1777 0b8c 1E010000 		.4byte	.LVL42
 1778 0b90 090D0000 		.4byte	0xd09
 1779 0b94 A20B0000 		.4byte	0xba2
 1780 0b98 23       		.uleb128 0x23
 1781 0b99 01       		.uleb128 0x1
 1782 0b9a 51       		.byte	0x51
 1783 0b9b 05       		.uleb128 0x5
 1784 0b9c 03       		.byte	0x3
 1785 0b9d 1C000000 		.4byte	.LC4
 1786 0ba1 00       		.byte	0
 1787 0ba2 22       		.uleb128 0x22
 1788 0ba3 26010000 		.4byte	.LVL43
 1789 0ba7 090D0000 		.4byte	0xd09
 1790 0bab B90B0000 		.4byte	0xbb9
 1791 0baf 23       		.uleb128 0x23
 1792 0bb0 01       		.uleb128 0x1
 1793 0bb1 51       		.byte	0x51
 1794 0bb2 05       		.uleb128 0x5
 1795 0bb3 03       		.byte	0x3
 1796 0bb4 38000000 		.4byte	.LC8
 1797 0bb8 00       		.byte	0
 1798 0bb9 24       		.uleb128 0x24
 1799 0bba 2E010000 		.4byte	.LVL44
 1800 0bbe 090D0000 		.4byte	0xd09
 1801 0bc2 22       		.uleb128 0x22
 1802 0bc3 36010000 		.4byte	.LVL45
 1803 0bc7 090D0000 		.4byte	0xd09
 1804 0bcb D90B0000 		.4byte	0xbd9
 1805 0bcf 23       		.uleb128 0x23
 1806 0bd0 01       		.uleb128 0x1
 1807 0bd1 51       		.byte	0x51
 1808 0bd2 05       		.uleb128 0x5
 1809 0bd3 03       		.byte	0x3
 1810 0bd4 1C000000 		.4byte	.LC4
 1811 0bd8 00       		.byte	0
 1812 0bd9 22       		.uleb128 0x22
 1813 0bda 3E010000 		.4byte	.LVL46
 1814 0bde 090D0000 		.4byte	0xd09
 1815 0be2 F00B0000 		.4byte	0xbf0
 1816 0be6 23       		.uleb128 0x23
 1817 0be7 01       		.uleb128 0x1
ARM GAS  /tmp/cc3ZbfiP.s 			page 33


 1818 0be8 51       		.byte	0x51
 1819 0be9 05       		.uleb128 0x5
 1820 0bea 03       		.byte	0x3
 1821 0beb 3C000000 		.4byte	.LC9
 1822 0bef 00       		.byte	0
 1823 0bf0 24       		.uleb128 0x24
 1824 0bf1 46010000 		.4byte	.LVL47
 1825 0bf5 090D0000 		.4byte	0xd09
 1826 0bf9 25       		.uleb128 0x25
 1827 0bfa 4E010000 		.4byte	.LVL48
 1828 0bfe 090D0000 		.4byte	0xd09
 1829 0c02 23       		.uleb128 0x23
 1830 0c03 01       		.uleb128 0x1
 1831 0c04 51       		.byte	0x51
 1832 0c05 05       		.uleb128 0x5
 1833 0c06 03       		.byte	0x3
 1834 0c07 1C000000 		.4byte	.LC4
 1835 0c0b 00       		.byte	0
 1836 0c0c 00       		.byte	0
 1837 0c0d 22       		.uleb128 0x22
 1838 0c0e 5E000000 		.4byte	.LVL14
 1839 0c12 260D0000 		.4byte	0xd26
 1840 0c16 2B0C0000 		.4byte	0xc2b
 1841 0c1a 23       		.uleb128 0x23
 1842 0c1b 01       		.uleb128 0x1
 1843 0c1c 51       		.byte	0x51
 1844 0c1d 05       		.uleb128 0x5
 1845 0c1e 03       		.byte	0x3
 1846 0c1f 00000000 		.4byte	.LC0
 1847 0c23 23       		.uleb128 0x23
 1848 0c24 01       		.uleb128 0x1
 1849 0c25 50       		.byte	0x50
 1850 0c26 03       		.uleb128 0x3
 1851 0c27 91       		.byte	0x91
 1852 0c28 8C7F     		.sleb128 -116
 1853 0c2a 00       		.byte	0
 1854 0c2b 25       		.uleb128 0x25
 1855 0c2c 68000000 		.4byte	.LVL17
 1856 0c30 260D0000 		.4byte	0xd26
 1857 0c34 23       		.uleb128 0x23
 1858 0c35 01       		.uleb128 0x1
 1859 0c36 51       		.byte	0x51
 1860 0c37 05       		.uleb128 0x5
 1861 0c38 03       		.byte	0x3
 1862 0c39 08000000 		.4byte	.LC1
 1863 0c3d 23       		.uleb128 0x23
 1864 0c3e 01       		.uleb128 0x1
 1865 0c3f 50       		.byte	0x50
 1866 0c40 03       		.uleb128 0x3
 1867 0c41 91       		.byte	0x91
 1868 0c42 8C7F     		.sleb128 -116
 1869 0c44 00       		.byte	0
 1870 0c45 00       		.byte	0
 1871 0c46 25       		.uleb128 0x25
 1872 0c47 28000000 		.4byte	.LVL5
 1873 0c4b 400D0000 		.4byte	0xd40
 1874 0c4f 23       		.uleb128 0x23
ARM GAS  /tmp/cc3ZbfiP.s 			page 34


 1875 0c50 01       		.uleb128 0x1
 1876 0c51 51       		.byte	0x51
 1877 0c52 02       		.uleb128 0x2
 1878 0c53 09       		.byte	0x9
 1879 0c54 FF       		.byte	0xff
 1880 0c55 00       		.byte	0
 1881 0c56 00       		.byte	0
 1882 0c57 24       		.uleb128 0x24
 1883 0c58 08000000 		.4byte	.LVL0
 1884 0c5c 610D0000 		.4byte	0xd61
 1885 0c60 24       		.uleb128 0x24
 1886 0c61 0C000000 		.4byte	.LVL1
 1887 0c65 680D0000 		.4byte	0xd68
 1888 0c69 22       		.uleb128 0x22
 1889 0c6a 14000000 		.4byte	.LVL2
 1890 0c6e 6F0D0000 		.4byte	0xd6f
 1891 0c72 7C0C0000 		.4byte	0xc7c
 1892 0c76 23       		.uleb128 0x23
 1893 0c77 01       		.uleb128 0x1
 1894 0c78 51       		.byte	0x51
 1895 0c79 01       		.uleb128 0x1
 1896 0c7a 30       		.byte	0x30
 1897 0c7b 00       		.byte	0
 1898 0c7c 25       		.uleb128 0x25
 1899 0c7d 1C000000 		.4byte	.LVL3
 1900 0c81 6F0D0000 		.4byte	0xd6f
 1901 0c85 23       		.uleb128 0x23
 1902 0c86 01       		.uleb128 0x1
 1903 0c87 51       		.byte	0x51
 1904 0c88 01       		.uleb128 0x1
 1905 0c89 30       		.byte	0x30
 1906 0c8a 00       		.byte	0
 1907 0c8b 00       		.byte	0
 1908 0c8c 00       		.byte	0
 1909 0c8d 09       		.uleb128 0x9
 1910 0c8e 7E050000 		.4byte	0x57e
 1911 0c92 9D0C0000 		.4byte	0xc9d
 1912 0c96 0A       		.uleb128 0xa
 1913 0c97 DE000000 		.4byte	0xde
 1914 0c9b 63       		.byte	0x63
 1915 0c9c 00       		.byte	0
 1916 0c9d 09       		.uleb128 0x9
 1917 0c9e 47090000 		.4byte	0x947
 1918 0ca2 AD0C0000 		.4byte	0xcad
 1919 0ca6 0A       		.uleb128 0xa
 1920 0ca7 DE000000 		.4byte	0xde
 1921 0cab 0F       		.byte	0xf
 1922 0cac 00       		.byte	0
 1923 0cad 26       		.uleb128 0x26
 1924 0cae 86000000 		.4byte	.LASF136
 1925 0cb2 15       		.byte	0x15
 1926 0cb3 CE06     		.2byte	0x6ce
 1927 0cb5 B90C0000 		.4byte	0xcb9
 1928 0cb9 05       		.uleb128 0x5
 1929 0cba 7E000000 		.4byte	0x7e
 1930 0cbe 27       		.uleb128 0x27
 1931 0cbf 53443100 		.ascii	"SD1\000"
ARM GAS  /tmp/cc3ZbfiP.s 			page 35


 1932 0cc3 10       		.byte	0x10
 1933 0cc4 81       		.byte	0x81
 1934 0cc5 FB070000 		.4byte	0x7fb
 1935 0cc9 27       		.uleb128 0x27
 1936 0cca 53443200 		.ascii	"SD2\000"
 1937 0cce 10       		.byte	0x10
 1938 0ccf 85       		.byte	0x85
 1939 0cd0 FB070000 		.4byte	0x7fb
 1940 0cd4 09       		.uleb128 0x9
 1941 0cd5 77000000 		.4byte	0x77
 1942 0cd9 E40C0000 		.4byte	0xce4
 1943 0cdd 0A       		.uleb128 0xa
 1944 0cde DE000000 		.4byte	0xde
 1945 0ce2 25       		.byte	0x25
 1946 0ce3 00       		.byte	0
 1947 0ce4 28       		.uleb128 0x28
 1948 0ce5 14040000 		.4byte	.LASF150
 1949 0ce9 01       		.byte	0x1
 1950 0cea 12       		.byte	0x12
 1951 0ceb D40C0000 		.4byte	0xcd4
 1952 0cef 29       		.uleb128 0x29
 1953 0cf0 0C010000 		.4byte	.LASF137
 1954 0cf4 11       		.byte	0x11
 1955 0cf5 2A       		.byte	0x2a
 1956 0cf6 47090000 		.4byte	0x947
 1957 0cfa 090D0000 		.4byte	0xd09
 1958 0cfe 18       		.uleb128 0x18
 1959 0cff 47090000 		.4byte	0x947
 1960 0d03 18       		.uleb128 0x18
 1961 0d04 73050000 		.4byte	0x573
 1962 0d08 00       		.byte	0
 1963 0d09 2A       		.uleb128 0x2a
 1964 0d0a 78060000 		.4byte	.LASF142
 1965 0d0e 14       		.byte	0x14
 1966 0d0f 2A       		.byte	0x2a
 1967 0d10 200D0000 		.4byte	0xd20
 1968 0d14 18       		.uleb128 0x18
 1969 0d15 200D0000 		.4byte	0xd20
 1970 0d19 18       		.uleb128 0x18
 1971 0d1a 73050000 		.4byte	0x573
 1972 0d1e 2B       		.uleb128 0x2b
 1973 0d1f 00       		.byte	0
 1974 0d20 12       		.uleb128 0x12
 1975 0d21 04       		.byte	0x4
 1976 0d22 A5070000 		.4byte	0x7a5
 1977 0d26 29       		.uleb128 0x29
 1978 0d27 38000000 		.4byte	.LASF138
 1979 0d2b 11       		.byte	0x11
 1980 0d2c 28       		.byte	0x28
 1981 0d2d 47090000 		.4byte	0x947
 1982 0d31 400D0000 		.4byte	0xd40
 1983 0d35 18       		.uleb128 0x18
 1984 0d36 73050000 		.4byte	0x573
 1985 0d3a 18       		.uleb128 0x18
 1986 0d3b 73050000 		.4byte	0x573
 1987 0d3f 00       		.byte	0
 1988 0d40 2C       		.uleb128 0x2c
ARM GAS  /tmp/cc3ZbfiP.s 			page 36


 1989 0d41 69060000 		.4byte	.LASF139
 1990 0d45 0D       		.byte	0xd
 1991 0d46 5301     		.2byte	0x153
 1992 0d48 65020000 		.4byte	0x265
 1993 0d4c 5B0D0000 		.4byte	0xd5b
 1994 0d50 18       		.uleb128 0x18
 1995 0d51 5B0D0000 		.4byte	0xd5b
 1996 0d55 18       		.uleb128 0x18
 1997 0d56 7B020000 		.4byte	0x27b
 1998 0d5a 00       		.byte	0
 1999 0d5b 12       		.uleb128 0x12
 2000 0d5c 04       		.byte	0x4
 2001 0d5d 1F060000 		.4byte	0x61f
 2002 0d61 2D       		.uleb128 0x2d
 2003 0d62 BF010000 		.4byte	.LASF140
 2004 0d66 12       		.byte	0x12
 2005 0d67 A4       		.byte	0xa4
 2006 0d68 2D       		.uleb128 0x2d
 2007 0d69 CE000000 		.4byte	.LASF141
 2008 0d6d 13       		.byte	0x13
 2009 0d6e F6       		.byte	0xf6
 2010 0d6f 2E       		.uleb128 0x2e
 2011 0d70 4C050000 		.4byte	.LASF143
 2012 0d74 0F       		.byte	0xf
 2013 0d75 3901     		.2byte	0x139
 2014 0d77 860D0000 		.4byte	0xd86
 2015 0d7b 18       		.uleb128 0x18
 2016 0d7c 860D0000 		.4byte	0xd86
 2017 0d80 18       		.uleb128 0x18
 2018 0d81 8C0D0000 		.4byte	0xd8c
 2019 0d85 00       		.byte	0
 2020 0d86 12       		.uleb128 0x12
 2021 0d87 04       		.byte	0x4
 2022 0d88 FB070000 		.4byte	0x7fb
 2023 0d8c 12       		.uleb128 0x12
 2024 0d8d 04       		.byte	0x4
 2025 0d8e 920D0000 		.4byte	0xd92
 2026 0d92 16       		.uleb128 0x16
 2027 0d93 A2080000 		.4byte	0x8a2
 2028 0d97 00       		.byte	0
 2029              		.section	.debug_abbrev,"",%progbits
 2030              	.Ldebug_abbrev0:
 2031 0000 01       		.uleb128 0x1
 2032 0001 11       		.uleb128 0x11
 2033 0002 01       		.byte	0x1
 2034 0003 25       		.uleb128 0x25
 2035 0004 0E       		.uleb128 0xe
 2036 0005 13       		.uleb128 0x13
 2037 0006 0B       		.uleb128 0xb
 2038 0007 03       		.uleb128 0x3
 2039 0008 0E       		.uleb128 0xe
 2040 0009 1B       		.uleb128 0x1b
 2041 000a 0E       		.uleb128 0xe
 2042 000b 55       		.uleb128 0x55
 2043 000c 17       		.uleb128 0x17
 2044 000d 11       		.uleb128 0x11
 2045 000e 01       		.uleb128 0x1
ARM GAS  /tmp/cc3ZbfiP.s 			page 37


 2046 000f 10       		.uleb128 0x10
 2047 0010 17       		.uleb128 0x17
 2048 0011 00       		.byte	0
 2049 0012 00       		.byte	0
 2050 0013 02       		.uleb128 0x2
 2051 0014 24       		.uleb128 0x24
 2052 0015 00       		.byte	0
 2053 0016 0B       		.uleb128 0xb
 2054 0017 0B       		.uleb128 0xb
 2055 0018 3E       		.uleb128 0x3e
 2056 0019 0B       		.uleb128 0xb
 2057 001a 03       		.uleb128 0x3
 2058 001b 0E       		.uleb128 0xe
 2059 001c 00       		.byte	0
 2060 001d 00       		.byte	0
 2061 001e 03       		.uleb128 0x3
 2062 001f 16       		.uleb128 0x16
 2063 0020 00       		.byte	0
 2064 0021 03       		.uleb128 0x3
 2065 0022 0E       		.uleb128 0xe
 2066 0023 3A       		.uleb128 0x3a
 2067 0024 0B       		.uleb128 0xb
 2068 0025 3B       		.uleb128 0x3b
 2069 0026 0B       		.uleb128 0xb
 2070 0027 49       		.uleb128 0x49
 2071 0028 13       		.uleb128 0x13
 2072 0029 00       		.byte	0
 2073 002a 00       		.byte	0
 2074 002b 04       		.uleb128 0x4
 2075 002c 24       		.uleb128 0x24
 2076 002d 00       		.byte	0
 2077 002e 0B       		.uleb128 0xb
 2078 002f 0B       		.uleb128 0xb
 2079 0030 3E       		.uleb128 0x3e
 2080 0031 0B       		.uleb128 0xb
 2081 0032 03       		.uleb128 0x3
 2082 0033 08       		.uleb128 0x8
 2083 0034 00       		.byte	0
 2084 0035 00       		.byte	0
 2085 0036 05       		.uleb128 0x5
 2086 0037 35       		.uleb128 0x35
 2087 0038 00       		.byte	0
 2088 0039 49       		.uleb128 0x49
 2089 003a 13       		.uleb128 0x13
 2090 003b 00       		.byte	0
 2091 003c 00       		.byte	0
 2092 003d 06       		.uleb128 0x6
 2093 003e 13       		.uleb128 0x13
 2094 003f 01       		.byte	0x1
 2095 0040 0B       		.uleb128 0xb
 2096 0041 05       		.uleb128 0x5
 2097 0042 3A       		.uleb128 0x3a
 2098 0043 0B       		.uleb128 0xb
 2099 0044 3B       		.uleb128 0x3b
 2100 0045 05       		.uleb128 0x5
 2101 0046 6E       		.uleb128 0x6e
 2102 0047 0E       		.uleb128 0xe
ARM GAS  /tmp/cc3ZbfiP.s 			page 38


 2103 0048 01       		.uleb128 0x1
 2104 0049 13       		.uleb128 0x13
 2105 004a 00       		.byte	0
 2106 004b 00       		.byte	0
 2107 004c 07       		.uleb128 0x7
 2108 004d 0D       		.uleb128 0xd
 2109 004e 00       		.byte	0
 2110 004f 03       		.uleb128 0x3
 2111 0050 0E       		.uleb128 0xe
 2112 0051 3A       		.uleb128 0x3a
 2113 0052 0B       		.uleb128 0xb
 2114 0053 3B       		.uleb128 0x3b
 2115 0054 05       		.uleb128 0x5
 2116 0055 49       		.uleb128 0x49
 2117 0056 13       		.uleb128 0x13
 2118 0057 38       		.uleb128 0x38
 2119 0058 0B       		.uleb128 0xb
 2120 0059 00       		.byte	0
 2121 005a 00       		.byte	0
 2122 005b 08       		.uleb128 0x8
 2123 005c 0D       		.uleb128 0xd
 2124 005d 00       		.byte	0
 2125 005e 03       		.uleb128 0x3
 2126 005f 0E       		.uleb128 0xe
 2127 0060 3A       		.uleb128 0x3a
 2128 0061 0B       		.uleb128 0xb
 2129 0062 3B       		.uleb128 0x3b
 2130 0063 05       		.uleb128 0x5
 2131 0064 49       		.uleb128 0x49
 2132 0065 13       		.uleb128 0x13
 2133 0066 38       		.uleb128 0x38
 2134 0067 05       		.uleb128 0x5
 2135 0068 00       		.byte	0
 2136 0069 00       		.byte	0
 2137 006a 09       		.uleb128 0x9
 2138 006b 01       		.uleb128 0x1
 2139 006c 01       		.byte	0x1
 2140 006d 49       		.uleb128 0x49
 2141 006e 13       		.uleb128 0x13
 2142 006f 01       		.uleb128 0x1
 2143 0070 13       		.uleb128 0x13
 2144 0071 00       		.byte	0
 2145 0072 00       		.byte	0
 2146 0073 0A       		.uleb128 0xa
 2147 0074 21       		.uleb128 0x21
 2148 0075 00       		.byte	0
 2149 0076 49       		.uleb128 0x49
 2150 0077 13       		.uleb128 0x13
 2151 0078 2F       		.uleb128 0x2f
 2152 0079 0B       		.uleb128 0xb
 2153 007a 00       		.byte	0
 2154 007b 00       		.byte	0
 2155 007c 0B       		.uleb128 0xb
 2156 007d 16       		.uleb128 0x16
 2157 007e 00       		.byte	0
 2158 007f 03       		.uleb128 0x3
 2159 0080 0E       		.uleb128 0xe
ARM GAS  /tmp/cc3ZbfiP.s 			page 39


 2160 0081 3A       		.uleb128 0x3a
 2161 0082 0B       		.uleb128 0xb
 2162 0083 3B       		.uleb128 0x3b
 2163 0084 05       		.uleb128 0x5
 2164 0085 49       		.uleb128 0x49
 2165 0086 13       		.uleb128 0x13
 2166 0087 00       		.byte	0
 2167 0088 00       		.byte	0
 2168 0089 0C       		.uleb128 0xc
 2169 008a 13       		.uleb128 0x13
 2170 008b 01       		.byte	0x1
 2171 008c 03       		.uleb128 0x3
 2172 008d 0E       		.uleb128 0xe
 2173 008e 0B       		.uleb128 0xb
 2174 008f 0B       		.uleb128 0xb
 2175 0090 3A       		.uleb128 0x3a
 2176 0091 0B       		.uleb128 0xb
 2177 0092 3B       		.uleb128 0x3b
 2178 0093 0B       		.uleb128 0xb
 2179 0094 01       		.uleb128 0x1
 2180 0095 13       		.uleb128 0x13
 2181 0096 00       		.byte	0
 2182 0097 00       		.byte	0
 2183 0098 0D       		.uleb128 0xd
 2184 0099 17       		.uleb128 0x17
 2185 009a 01       		.byte	0x1
 2186 009b 0B       		.uleb128 0xb
 2187 009c 0B       		.uleb128 0xb
 2188 009d 3A       		.uleb128 0x3a
 2189 009e 0B       		.uleb128 0xb
 2190 009f 3B       		.uleb128 0x3b
 2191 00a0 0B       		.uleb128 0xb
 2192 00a1 01       		.uleb128 0x1
 2193 00a2 13       		.uleb128 0x13
 2194 00a3 00       		.byte	0
 2195 00a4 00       		.byte	0
 2196 00a5 0E       		.uleb128 0xe
 2197 00a6 0D       		.uleb128 0xd
 2198 00a7 00       		.byte	0
 2199 00a8 03       		.uleb128 0x3
 2200 00a9 0E       		.uleb128 0xe
 2201 00aa 3A       		.uleb128 0x3a
 2202 00ab 0B       		.uleb128 0xb
 2203 00ac 3B       		.uleb128 0x3b
 2204 00ad 0B       		.uleb128 0xb
 2205 00ae 49       		.uleb128 0x49
 2206 00af 13       		.uleb128 0x13
 2207 00b0 00       		.byte	0
 2208 00b1 00       		.byte	0
 2209 00b2 0F       		.uleb128 0xf
 2210 00b3 0D       		.uleb128 0xd
 2211 00b4 00       		.byte	0
 2212 00b5 03       		.uleb128 0x3
 2213 00b6 0E       		.uleb128 0xe
 2214 00b7 3A       		.uleb128 0x3a
 2215 00b8 0B       		.uleb128 0xb
 2216 00b9 3B       		.uleb128 0x3b
ARM GAS  /tmp/cc3ZbfiP.s 			page 40


 2217 00ba 0B       		.uleb128 0xb
 2218 00bb 49       		.uleb128 0x49
 2219 00bc 13       		.uleb128 0x13
 2220 00bd 38       		.uleb128 0x38
 2221 00be 0B       		.uleb128 0xb
 2222 00bf 00       		.byte	0
 2223 00c0 00       		.byte	0
 2224 00c1 10       		.uleb128 0x10
 2225 00c2 0D       		.uleb128 0xd
 2226 00c3 00       		.byte	0
 2227 00c4 03       		.uleb128 0x3
 2228 00c5 08       		.uleb128 0x8
 2229 00c6 3A       		.uleb128 0x3a
 2230 00c7 0B       		.uleb128 0xb
 2231 00c8 3B       		.uleb128 0x3b
 2232 00c9 0B       		.uleb128 0xb
 2233 00ca 49       		.uleb128 0x49
 2234 00cb 13       		.uleb128 0x13
 2235 00cc 38       		.uleb128 0x38
 2236 00cd 0B       		.uleb128 0xb
 2237 00ce 00       		.byte	0
 2238 00cf 00       		.byte	0
 2239 00d0 11       		.uleb128 0x11
 2240 00d1 13       		.uleb128 0x13
 2241 00d2 01       		.byte	0x1
 2242 00d3 0B       		.uleb128 0xb
 2243 00d4 0B       		.uleb128 0xb
 2244 00d5 3A       		.uleb128 0x3a
 2245 00d6 0B       		.uleb128 0xb
 2246 00d7 3B       		.uleb128 0x3b
 2247 00d8 0B       		.uleb128 0xb
 2248 00d9 6E       		.uleb128 0x6e
 2249 00da 0E       		.uleb128 0xe
 2250 00db 01       		.uleb128 0x1
 2251 00dc 13       		.uleb128 0x13
 2252 00dd 00       		.byte	0
 2253 00de 00       		.byte	0
 2254 00df 12       		.uleb128 0x12
 2255 00e0 0F       		.uleb128 0xf
 2256 00e1 00       		.byte	0
 2257 00e2 0B       		.uleb128 0xb
 2258 00e3 0B       		.uleb128 0xb
 2259 00e4 49       		.uleb128 0x49
 2260 00e5 13       		.uleb128 0x13
 2261 00e6 00       		.byte	0
 2262 00e7 00       		.byte	0
 2263 00e8 13       		.uleb128 0x13
 2264 00e9 0F       		.uleb128 0xf
 2265 00ea 00       		.byte	0
 2266 00eb 0B       		.uleb128 0xb
 2267 00ec 0B       		.uleb128 0xb
 2268 00ed 00       		.byte	0
 2269 00ee 00       		.byte	0
 2270 00ef 14       		.uleb128 0x14
 2271 00f0 0D       		.uleb128 0xd
 2272 00f1 00       		.byte	0
 2273 00f2 03       		.uleb128 0x3
ARM GAS  /tmp/cc3ZbfiP.s 			page 41


 2274 00f3 08       		.uleb128 0x8
 2275 00f4 3A       		.uleb128 0x3a
 2276 00f5 0B       		.uleb128 0xb
 2277 00f6 3B       		.uleb128 0x3b
 2278 00f7 05       		.uleb128 0x5
 2279 00f8 49       		.uleb128 0x49
 2280 00f9 13       		.uleb128 0x13
 2281 00fa 38       		.uleb128 0x38
 2282 00fb 0B       		.uleb128 0xb
 2283 00fc 00       		.byte	0
 2284 00fd 00       		.byte	0
 2285 00fe 15       		.uleb128 0x15
 2286 00ff 13       		.uleb128 0x13
 2287 0100 01       		.byte	0x1
 2288 0101 03       		.uleb128 0x3
 2289 0102 0E       		.uleb128 0xe
 2290 0103 0B       		.uleb128 0xb
 2291 0104 0B       		.uleb128 0xb
 2292 0105 3A       		.uleb128 0x3a
 2293 0106 0B       		.uleb128 0xb
 2294 0107 3B       		.uleb128 0x3b
 2295 0108 05       		.uleb128 0x5
 2296 0109 01       		.uleb128 0x1
 2297 010a 13       		.uleb128 0x13
 2298 010b 00       		.byte	0
 2299 010c 00       		.byte	0
 2300 010d 16       		.uleb128 0x16
 2301 010e 26       		.uleb128 0x26
 2302 010f 00       		.byte	0
 2303 0110 49       		.uleb128 0x49
 2304 0111 13       		.uleb128 0x13
 2305 0112 00       		.byte	0
 2306 0113 00       		.byte	0
 2307 0114 17       		.uleb128 0x17
 2308 0115 15       		.uleb128 0x15
 2309 0116 01       		.byte	0x1
 2310 0117 01       		.uleb128 0x1
 2311 0118 13       		.uleb128 0x13
 2312 0119 00       		.byte	0
 2313 011a 00       		.byte	0
 2314 011b 18       		.uleb128 0x18
 2315 011c 05       		.uleb128 0x5
 2316 011d 00       		.byte	0
 2317 011e 49       		.uleb128 0x49
 2318 011f 13       		.uleb128 0x13
 2319 0120 00       		.byte	0
 2320 0121 00       		.byte	0
 2321 0122 19       		.uleb128 0x19
 2322 0123 15       		.uleb128 0x15
 2323 0124 01       		.byte	0x1
 2324 0125 49       		.uleb128 0x49
 2325 0126 13       		.uleb128 0x13
 2326 0127 01       		.uleb128 0x1
 2327 0128 13       		.uleb128 0x13
 2328 0129 00       		.byte	0
 2329 012a 00       		.byte	0
 2330 012b 1A       		.uleb128 0x1a
ARM GAS  /tmp/cc3ZbfiP.s 			page 42


 2331 012c 04       		.uleb128 0x4
 2332 012d 01       		.byte	0x1
 2333 012e 0B       		.uleb128 0xb
 2334 012f 0B       		.uleb128 0xb
 2335 0130 3A       		.uleb128 0x3a
 2336 0131 0B       		.uleb128 0xb
 2337 0132 3B       		.uleb128 0x3b
 2338 0133 0B       		.uleb128 0xb
 2339 0134 6E       		.uleb128 0x6e
 2340 0135 0E       		.uleb128 0xe
 2341 0136 01       		.uleb128 0x1
 2342 0137 13       		.uleb128 0x13
 2343 0138 00       		.byte	0
 2344 0139 00       		.byte	0
 2345 013a 1B       		.uleb128 0x1b
 2346 013b 28       		.uleb128 0x28
 2347 013c 00       		.byte	0
 2348 013d 03       		.uleb128 0x3
 2349 013e 0E       		.uleb128 0xe
 2350 013f 1C       		.uleb128 0x1c
 2351 0140 0D       		.uleb128 0xd
 2352 0141 00       		.byte	0
 2353 0142 00       		.byte	0
 2354 0143 1C       		.uleb128 0x1c
 2355 0144 2E       		.uleb128 0x2e
 2356 0145 01       		.byte	0x1
 2357 0146 3F       		.uleb128 0x3f
 2358 0147 19       		.uleb128 0x19
 2359 0148 03       		.uleb128 0x3
 2360 0149 0E       		.uleb128 0xe
 2361 014a 3A       		.uleb128 0x3a
 2362 014b 0B       		.uleb128 0xb
 2363 014c 3B       		.uleb128 0x3b
 2364 014d 0B       		.uleb128 0xb
 2365 014e 49       		.uleb128 0x49
 2366 014f 13       		.uleb128 0x13
 2367 0150 11       		.uleb128 0x11
 2368 0151 01       		.uleb128 0x1
 2369 0152 12       		.uleb128 0x12
 2370 0153 06       		.uleb128 0x6
 2371 0154 40       		.uleb128 0x40
 2372 0155 18       		.uleb128 0x18
 2373 0156 9742     		.uleb128 0x2117
 2374 0158 19       		.uleb128 0x19
 2375 0159 01       		.uleb128 0x1
 2376 015a 13       		.uleb128 0x13
 2377 015b 00       		.byte	0
 2378 015c 00       		.byte	0
 2379 015d 1D       		.uleb128 0x1d
 2380 015e 0B       		.uleb128 0xb
 2381 015f 01       		.byte	0x1
 2382 0160 11       		.uleb128 0x11
 2383 0161 01       		.uleb128 0x1
 2384 0162 12       		.uleb128 0x12
 2385 0163 06       		.uleb128 0x6
 2386 0164 00       		.byte	0
 2387 0165 00       		.byte	0
ARM GAS  /tmp/cc3ZbfiP.s 			page 43


 2388 0166 1E       		.uleb128 0x1e
 2389 0167 34       		.uleb128 0x34
 2390 0168 00       		.byte	0
 2391 0169 03       		.uleb128 0x3
 2392 016a 0E       		.uleb128 0xe
 2393 016b 3A       		.uleb128 0x3a
 2394 016c 0B       		.uleb128 0xb
 2395 016d 3B       		.uleb128 0x3b
 2396 016e 0B       		.uleb128 0xb
 2397 016f 49       		.uleb128 0x49
 2398 0170 13       		.uleb128 0x13
 2399 0171 02       		.uleb128 0x2
 2400 0172 18       		.uleb128 0x18
 2401 0173 00       		.byte	0
 2402 0174 00       		.byte	0
 2403 0175 1F       		.uleb128 0x1f
 2404 0176 34       		.uleb128 0x34
 2405 0177 00       		.byte	0
 2406 0178 03       		.uleb128 0x3
 2407 0179 0E       		.uleb128 0xe
 2408 017a 3A       		.uleb128 0x3a
 2409 017b 0B       		.uleb128 0xb
 2410 017c 3B       		.uleb128 0x3b
 2411 017d 0B       		.uleb128 0xb
 2412 017e 49       		.uleb128 0x49
 2413 017f 13       		.uleb128 0x13
 2414 0180 02       		.uleb128 0x2
 2415 0181 17       		.uleb128 0x17
 2416 0182 00       		.byte	0
 2417 0183 00       		.byte	0
 2418 0184 20       		.uleb128 0x20
 2419 0185 0B       		.uleb128 0xb
 2420 0186 01       		.byte	0x1
 2421 0187 11       		.uleb128 0x11
 2422 0188 01       		.uleb128 0x1
 2423 0189 12       		.uleb128 0x12
 2424 018a 06       		.uleb128 0x6
 2425 018b 01       		.uleb128 0x1
 2426 018c 13       		.uleb128 0x13
 2427 018d 00       		.byte	0
 2428 018e 00       		.byte	0
 2429 018f 21       		.uleb128 0x21
 2430 0190 34       		.uleb128 0x34
 2431 0191 00       		.byte	0
 2432 0192 03       		.uleb128 0x3
 2433 0193 08       		.uleb128 0x8
 2434 0194 3A       		.uleb128 0x3a
 2435 0195 0B       		.uleb128 0xb
 2436 0196 3B       		.uleb128 0x3b
 2437 0197 0B       		.uleb128 0xb
 2438 0198 49       		.uleb128 0x49
 2439 0199 13       		.uleb128 0x13
 2440 019a 02       		.uleb128 0x2
 2441 019b 17       		.uleb128 0x17
 2442 019c 00       		.byte	0
 2443 019d 00       		.byte	0
 2444 019e 22       		.uleb128 0x22
ARM GAS  /tmp/cc3ZbfiP.s 			page 44


 2445 019f 898201   		.uleb128 0x4109
 2446 01a2 01       		.byte	0x1
 2447 01a3 11       		.uleb128 0x11
 2448 01a4 01       		.uleb128 0x1
 2449 01a5 31       		.uleb128 0x31
 2450 01a6 13       		.uleb128 0x13
 2451 01a7 01       		.uleb128 0x1
 2452 01a8 13       		.uleb128 0x13
 2453 01a9 00       		.byte	0
 2454 01aa 00       		.byte	0
 2455 01ab 23       		.uleb128 0x23
 2456 01ac 8A8201   		.uleb128 0x410a
 2457 01af 00       		.byte	0
 2458 01b0 02       		.uleb128 0x2
 2459 01b1 18       		.uleb128 0x18
 2460 01b2 9142     		.uleb128 0x2111
 2461 01b4 18       		.uleb128 0x18
 2462 01b5 00       		.byte	0
 2463 01b6 00       		.byte	0
 2464 01b7 24       		.uleb128 0x24
 2465 01b8 898201   		.uleb128 0x4109
 2466 01bb 00       		.byte	0
 2467 01bc 11       		.uleb128 0x11
 2468 01bd 01       		.uleb128 0x1
 2469 01be 31       		.uleb128 0x31
 2470 01bf 13       		.uleb128 0x13
 2471 01c0 00       		.byte	0
 2472 01c1 00       		.byte	0
 2473 01c2 25       		.uleb128 0x25
 2474 01c3 898201   		.uleb128 0x4109
 2475 01c6 01       		.byte	0x1
 2476 01c7 11       		.uleb128 0x11
 2477 01c8 01       		.uleb128 0x1
 2478 01c9 31       		.uleb128 0x31
 2479 01ca 13       		.uleb128 0x13
 2480 01cb 00       		.byte	0
 2481 01cc 00       		.byte	0
 2482 01cd 26       		.uleb128 0x26
 2483 01ce 34       		.uleb128 0x34
 2484 01cf 00       		.byte	0
 2485 01d0 03       		.uleb128 0x3
 2486 01d1 0E       		.uleb128 0xe
 2487 01d2 3A       		.uleb128 0x3a
 2488 01d3 0B       		.uleb128 0xb
 2489 01d4 3B       		.uleb128 0x3b
 2490 01d5 05       		.uleb128 0x5
 2491 01d6 49       		.uleb128 0x49
 2492 01d7 13       		.uleb128 0x13
 2493 01d8 3F       		.uleb128 0x3f
 2494 01d9 19       		.uleb128 0x19
 2495 01da 3C       		.uleb128 0x3c
 2496 01db 19       		.uleb128 0x19
 2497 01dc 00       		.byte	0
 2498 01dd 00       		.byte	0
 2499 01de 27       		.uleb128 0x27
 2500 01df 34       		.uleb128 0x34
 2501 01e0 00       		.byte	0
ARM GAS  /tmp/cc3ZbfiP.s 			page 45


 2502 01e1 03       		.uleb128 0x3
 2503 01e2 08       		.uleb128 0x8
 2504 01e3 3A       		.uleb128 0x3a
 2505 01e4 0B       		.uleb128 0xb
 2506 01e5 3B       		.uleb128 0x3b
 2507 01e6 0B       		.uleb128 0xb
 2508 01e7 49       		.uleb128 0x49
 2509 01e8 13       		.uleb128 0x13
 2510 01e9 3F       		.uleb128 0x3f
 2511 01ea 19       		.uleb128 0x19
 2512 01eb 3C       		.uleb128 0x3c
 2513 01ec 19       		.uleb128 0x19
 2514 01ed 00       		.byte	0
 2515 01ee 00       		.byte	0
 2516 01ef 28       		.uleb128 0x28
 2517 01f0 34       		.uleb128 0x34
 2518 01f1 00       		.byte	0
 2519 01f2 03       		.uleb128 0x3
 2520 01f3 0E       		.uleb128 0xe
 2521 01f4 3A       		.uleb128 0x3a
 2522 01f5 0B       		.uleb128 0xb
 2523 01f6 3B       		.uleb128 0x3b
 2524 01f7 0B       		.uleb128 0xb
 2525 01f8 49       		.uleb128 0x49
 2526 01f9 13       		.uleb128 0x13
 2527 01fa 00       		.byte	0
 2528 01fb 00       		.byte	0
 2529 01fc 29       		.uleb128 0x29
 2530 01fd 2E       		.uleb128 0x2e
 2531 01fe 01       		.byte	0x1
 2532 01ff 3F       		.uleb128 0x3f
 2533 0200 19       		.uleb128 0x19
 2534 0201 03       		.uleb128 0x3
 2535 0202 0E       		.uleb128 0xe
 2536 0203 3A       		.uleb128 0x3a
 2537 0204 0B       		.uleb128 0xb
 2538 0205 3B       		.uleb128 0x3b
 2539 0206 0B       		.uleb128 0xb
 2540 0207 49       		.uleb128 0x49
 2541 0208 13       		.uleb128 0x13
 2542 0209 3C       		.uleb128 0x3c
 2543 020a 19       		.uleb128 0x19
 2544 020b 01       		.uleb128 0x1
 2545 020c 13       		.uleb128 0x13
 2546 020d 00       		.byte	0
 2547 020e 00       		.byte	0
 2548 020f 2A       		.uleb128 0x2a
 2549 0210 2E       		.uleb128 0x2e
 2550 0211 01       		.byte	0x1
 2551 0212 3F       		.uleb128 0x3f
 2552 0213 19       		.uleb128 0x19
 2553 0214 03       		.uleb128 0x3
 2554 0215 0E       		.uleb128 0xe
 2555 0216 3A       		.uleb128 0x3a
 2556 0217 0B       		.uleb128 0xb
 2557 0218 3B       		.uleb128 0x3b
 2558 0219 0B       		.uleb128 0xb
ARM GAS  /tmp/cc3ZbfiP.s 			page 46


 2559 021a 3C       		.uleb128 0x3c
 2560 021b 19       		.uleb128 0x19
 2561 021c 01       		.uleb128 0x1
 2562 021d 13       		.uleb128 0x13
 2563 021e 00       		.byte	0
 2564 021f 00       		.byte	0
 2565 0220 2B       		.uleb128 0x2b
 2566 0221 18       		.uleb128 0x18
 2567 0222 00       		.byte	0
 2568 0223 00       		.byte	0
 2569 0224 00       		.byte	0
 2570 0225 2C       		.uleb128 0x2c
 2571 0226 2E       		.uleb128 0x2e
 2572 0227 01       		.byte	0x1
 2573 0228 3F       		.uleb128 0x3f
 2574 0229 19       		.uleb128 0x19
 2575 022a 03       		.uleb128 0x3
 2576 022b 0E       		.uleb128 0xe
 2577 022c 3A       		.uleb128 0x3a
 2578 022d 0B       		.uleb128 0xb
 2579 022e 3B       		.uleb128 0x3b
 2580 022f 05       		.uleb128 0x5
 2581 0230 49       		.uleb128 0x49
 2582 0231 13       		.uleb128 0x13
 2583 0232 3C       		.uleb128 0x3c
 2584 0233 19       		.uleb128 0x19
 2585 0234 01       		.uleb128 0x1
 2586 0235 13       		.uleb128 0x13
 2587 0236 00       		.byte	0
 2588 0237 00       		.byte	0
 2589 0238 2D       		.uleb128 0x2d
 2590 0239 2E       		.uleb128 0x2e
 2591 023a 00       		.byte	0
 2592 023b 3F       		.uleb128 0x3f
 2593 023c 19       		.uleb128 0x19
 2594 023d 03       		.uleb128 0x3
 2595 023e 0E       		.uleb128 0xe
 2596 023f 3A       		.uleb128 0x3a
 2597 0240 0B       		.uleb128 0xb
 2598 0241 3B       		.uleb128 0x3b
 2599 0242 0B       		.uleb128 0xb
 2600 0243 3C       		.uleb128 0x3c
 2601 0244 19       		.uleb128 0x19
 2602 0245 00       		.byte	0
 2603 0246 00       		.byte	0
 2604 0247 2E       		.uleb128 0x2e
 2605 0248 2E       		.uleb128 0x2e
 2606 0249 01       		.byte	0x1
 2607 024a 3F       		.uleb128 0x3f
 2608 024b 19       		.uleb128 0x19
 2609 024c 03       		.uleb128 0x3
 2610 024d 0E       		.uleb128 0xe
 2611 024e 3A       		.uleb128 0x3a
 2612 024f 0B       		.uleb128 0xb
 2613 0250 3B       		.uleb128 0x3b
 2614 0251 05       		.uleb128 0x5
 2615 0252 3C       		.uleb128 0x3c
ARM GAS  /tmp/cc3ZbfiP.s 			page 47


 2616 0253 19       		.uleb128 0x19
 2617 0254 01       		.uleb128 0x1
 2618 0255 13       		.uleb128 0x13
 2619 0256 00       		.byte	0
 2620 0257 00       		.byte	0
 2621 0258 00       		.byte	0
 2622              		.section	.debug_loc,"",%progbits
 2623              	.Ldebug_loc0:
 2624              	.LLST0:
 2625 0000 1E000000 		.4byte	.LVL4
 2626 0004 40000000 		.4byte	.LVL8
 2627 0008 0100     		.2byte	0x1
 2628 000a 54       		.byte	0x54
 2629 000b 40000000 		.4byte	.LVL8
 2630 000f 4A000000 		.4byte	.LVL9
 2631 0013 0300     		.2byte	0x3
 2632 0015 74       		.byte	0x74
 2633 0016 01       		.sleb128 1
 2634 0017 9F       		.byte	0x9f
 2635 0018 4A000000 		.4byte	.LVL9
 2636 001c 4C000000 		.4byte	.LVL10
 2637 0020 0100     		.2byte	0x1
 2638 0022 54       		.byte	0x54
 2639 0023 4C000000 		.4byte	.LVL10
 2640 0027 50000000 		.4byte	.LVL11
 2641 002b 0300     		.2byte	0x3
 2642 002d 74       		.byte	0x74
 2643 002e 01       		.sleb128 1
 2644 002f 9F       		.byte	0x9f
 2645 0030 5A000000 		.4byte	.LVL13
 2646 0034 8C010000 		.4byte	.LFE37
 2647 0038 0200     		.2byte	0x2
 2648 003a 30       		.byte	0x30
 2649 003b 9F       		.byte	0x9f
 2650 003c 00000000 		.4byte	0
 2651 0040 00000000 		.4byte	0
 2652              	.LLST1:
 2653 0044 1E000000 		.4byte	.LVL4
 2654 0048 78000000 		.4byte	.LVL20
 2655 004c 0200     		.2byte	0x2
 2656 004e 30       		.byte	0x30
 2657 004f 9F       		.byte	0x9f
 2658 0050 00000000 		.4byte	0
 2659 0054 00000000 		.4byte	0
 2660              	.LLST2:
 2661 0058 1E000000 		.4byte	.LVL4
 2662 005c CC000000 		.4byte	.LVL31
 2663 0060 0200     		.2byte	0x2
 2664 0062 30       		.byte	0x30
 2665 0063 9F       		.byte	0x9f
 2666 0064 52010000 		.4byte	.LVL49
 2667 0068 8C010000 		.4byte	.LFE37
 2668 006c 0200     		.2byte	0x2
 2669 006e 30       		.byte	0x30
 2670 006f 9F       		.byte	0x9f
 2671 0070 00000000 		.4byte	0
 2672 0074 00000000 		.4byte	0
ARM GAS  /tmp/cc3ZbfiP.s 			page 48


 2673              	.LLST3:
 2674 0078 2C000000 		.4byte	.LVL6
 2675 007c 56000000 		.4byte	.LVL12
 2676 0080 0100     		.2byte	0x1
 2677 0082 50       		.byte	0x50
 2678 0083 00000000 		.4byte	0
 2679 0087 00000000 		.4byte	0
 2680              	.LLST4:
 2681 008b 62000000 		.4byte	.LVL15
 2682 008f 64000000 		.4byte	.LVL16
 2683 0093 0100     		.2byte	0x1
 2684 0095 50       		.byte	0x50
 2685 0096 64000000 		.4byte	.LVL16
 2686 009a 8C010000 		.4byte	.LFE37
 2687 009e 0100     		.2byte	0x1
 2688 00a0 55       		.byte	0x55
 2689 00a1 00000000 		.4byte	0
 2690 00a5 00000000 		.4byte	0
 2691              	.LLST5:
 2692 00a9 68000000 		.4byte	.LVL17
 2693 00ad 6C000000 		.4byte	.LVL18
 2694 00b1 0100     		.2byte	0x1
 2695 00b3 50       		.byte	0x50
 2696 00b4 00000000 		.4byte	0
 2697 00b8 00000000 		.4byte	0
 2698              	.LLST6:
 2699 00bc 72000000 		.4byte	.LVL19
 2700 00c0 7E000000 		.4byte	.LVL21
 2701 00c4 0100     		.2byte	0x1
 2702 00c6 50       		.byte	0x50
 2703 00c7 7E000000 		.4byte	.LVL21
 2704 00cb 83000000 		.4byte	.LVL22-1
 2705 00cf 0200     		.2byte	0x2
 2706 00d1 74       		.byte	0x74
 2707 00d2 00       		.sleb128 0
 2708 00d3 84000000 		.4byte	.LVL22
 2709 00d7 8C000000 		.4byte	.LVL23
 2710 00db 0100     		.2byte	0x1
 2711 00dd 50       		.byte	0x50
 2712 00de 8C000000 		.4byte	.LVL23
 2713 00e2 91000000 		.4byte	.LVL24-1
 2714 00e6 0100     		.2byte	0x1
 2715 00e8 53       		.byte	0x53
 2716 00e9 00000000 		.4byte	0
 2717 00ed 00000000 		.4byte	0
 2718              	.LLST7:
 2719 00f1 C6000000 		.4byte	.LVL30
 2720 00f5 D2000000 		.4byte	.LVL32
 2721 00f9 0100     		.2byte	0x1
 2722 00fb 50       		.byte	0x50
 2723 00fc D2000000 		.4byte	.LVL32
 2724 0100 D7000000 		.4byte	.LVL33-1
 2725 0104 0200     		.2byte	0x2
 2726 0106 74       		.byte	0x74
 2727 0107 00       		.sleb128 0
 2728 0108 D8000000 		.4byte	.LVL33
 2729 010c E0000000 		.4byte	.LVL34
ARM GAS  /tmp/cc3ZbfiP.s 			page 49


 2730 0110 0100     		.2byte	0x1
 2731 0112 50       		.byte	0x50
 2732 0113 E0000000 		.4byte	.LVL34
 2733 0117 E5000000 		.4byte	.LVL35-1
 2734 011b 0100     		.2byte	0x1
 2735 011d 53       		.byte	0x53
 2736 011e 00000000 		.4byte	0
 2737 0122 00000000 		.4byte	0
 2738              		.section	.debug_aranges,"",%progbits
 2739 0000 1C000000 		.4byte	0x1c
 2740 0004 0200     		.2byte	0x2
 2741 0006 00000000 		.4byte	.Ldebug_info0
 2742 000a 04       		.byte	0x4
 2743 000b 00       		.byte	0
 2744 000c 0000     		.2byte	0
 2745 000e 0000     		.2byte	0
 2746 0010 00000000 		.4byte	.LFB37
 2747 0014 8C010000 		.4byte	.LFE37-.LFB37
 2748 0018 00000000 		.4byte	0
 2749 001c 00000000 		.4byte	0
 2750              		.section	.debug_ranges,"",%progbits
 2751              	.Ldebug_ranges0:
 2752 0000 00000000 		.4byte	.LFB37
 2753 0004 8C010000 		.4byte	.LFE37
 2754 0008 00000000 		.4byte	0
 2755 000c 00000000 		.4byte	0
 2756              		.section	.debug_line,"",%progbits
 2757              	.Ldebug_line0:
 2758 0000 8C030000 		.section	.debug_str,"MS",%progbits,1
 2758      02003303 
 2758      00000201 
 2758      FB0E0D00 
 2758      01010101 
 2759              	.LASF24:
 2760 0000 55415254 		.ascii	"UART_IMR\000"
 2760      5F494D52 
 2760      00
 2761              	.LASF41:
 2762 0009 73697A65 		.ascii	"size_t\000"
 2762      5F7400
 2763              	.LASF148:
 2764 0010 39736473 		.ascii	"9sdstate_t\000"
 2764      74617465 
 2764      5F7400
 2765              	.LASF51:
 2766 001b 7264796D 		.ascii	"rdymsg\000"
 2766      736700
 2767              	.LASF101:
 2768 0022 4F757470 		.ascii	"OutputQueue\000"
 2768      75745175 
 2768      65756500 
 2769              	.LASF4:
 2770 002e 5F5F7569 		.ascii	"__uint8_t\000"
 2770      6E74385F 
 2770      7400
 2771              	.LASF138:
 2772 0038 73747273 		.ascii	"strstr\000"
ARM GAS  /tmp/cc3ZbfiP.s 			page 50


 2772      747200
 2773              	.LASF123:
 2774 003f 31325365 		.ascii	"12SerialConfig\000"
 2774      7269616C 
 2774      436F6E66 
 2774      696700
 2775              	.LASF31:
 2776 004e 55415254 		.ascii	"UART_RCR\000"
 2776      5F524352 
 2776      00
 2777              	.LASF10:
 2778 0057 6C6F6E67 		.ascii	"long long unsigned int\000"
 2778      206C6F6E 
 2778      6720756E 
 2778      7369676E 
 2778      65642069 
 2779              	.LASF102:
 2780 006e 42617365 		.ascii	"BaseChannelVMT\000"
 2780      4368616E 
 2780      6E656C56 
 2780      4D5400
 2781              	.LASF52:
 2782 007d 65786974 		.ascii	"exitcode\000"
 2782      636F6465 
 2782      00
 2783              	.LASF136:
 2784 0086 49544D5F 		.ascii	"ITM_RxBuffer\000"
 2784      52784275 
 2784      66666572 
 2784      00
 2785              	.LASF57:
 2786 0093 705F7072 		.ascii	"p_prio\000"
 2786      696F00
 2787              	.LASF108:
 2788 009a 72656164 		.ascii	"readt\000"
 2788      7400
 2789              	.LASF92:
 2790 00a0 715F7761 		.ascii	"q_waiting\000"
 2790      6974696E 
 2790      6700
 2791              	.LASF9:
 2792 00aa 6C6F6E67 		.ascii	"long long int\000"
 2792      206C6F6E 
 2792      6720696E 
 2792      7400
 2793              	.LASF0:
 2794 00b8 7369676E 		.ascii	"signed char\000"
 2794      65642063 
 2794      68617200 
 2795              	.LASF38:
 2796 00c4 55415254 		.ascii	"UART_PTCR\000"
 2796      5F505443 
 2796      5200
 2797              	.LASF141:
 2798 00ce 63685379 		.ascii	"chSysInit\000"
 2798      73496E69 
 2798      7400
ARM GAS  /tmp/cc3ZbfiP.s 			page 51


 2799              	.LASF72:
 2800 00d8 705F6D70 		.ascii	"p_mpool\000"
 2800      6F6F6C00 
 2801              	.LASF42:
 2802 00e0 626F6F6C 		.ascii	"bool_t\000"
 2802      5F7400
 2803              	.LASF81:
 2804 00e7 6D5F7175 		.ascii	"m_queue\000"
 2804      65756500 
 2805              	.LASF75:
 2806 00ef 31315468 		.ascii	"11ThreadsList\000"
 2806      72656164 
 2806      734C6973 
 2806      7400
 2807              	.LASF119:
 2808 00fd 73746174 		.ascii	"state\000"
 2808      6500
 2809              	.LASF6:
 2810 0103 6C6F6E67 		.ascii	"long int\000"
 2810      20696E74 
 2810      00
 2811              	.LASF137:
 2812 010c 73747274 		.ascii	"strtok\000"
 2812      6F6B00
 2813              	.LASF44:
 2814 0113 74737461 		.ascii	"tstate_t\000"
 2814      74655F74 
 2814      00
 2815              	.LASF129:
 2816 011c 55617274 		.ascii	"UartBuffer\000"
 2816      42756666 
 2816      657200
 2817              	.LASF94:
 2818 0127 715F6275 		.ascii	"q_buffer\000"
 2818      66666572 
 2818      00
 2819              	.LASF96:
 2820 0130 715F7772 		.ascii	"q_wrptr\000"
 2820      70747200 
 2821              	.LASF65:
 2822 0138 705F7469 		.ascii	"p_time\000"
 2822      6D6500
 2823              	.LASF59:
 2824 013f 705F6E65 		.ascii	"p_newer\000"
 2824      77657200 
 2825              	.LASF105:
 2826 0147 70757477 		.ascii	"putwouldblock\000"
 2826      6F756C64 
 2826      626C6F63 
 2826      6B00
 2827              	.LASF39:
 2828 0155 55415254 		.ascii	"UART_PTSR\000"
 2828      5F505453 
 2828      5200
 2829              	.LASF64:
 2830 015f 705F7265 		.ascii	"p_refs\000"
 2830      667300
ARM GAS  /tmp/cc3ZbfiP.s 			page 52


 2831              	.LASF7:
 2832 0166 5F5F7569 		.ascii	"__uint32_t\000"
 2832      6E743332 
 2832      5F7400
 2833              	.LASF77:
 2834 0171 72656761 		.ascii	"regarm_t\000"
 2834      726D5F74 
 2834      00
 2835              	.LASF99:
 2836 017a 716E6F74 		.ascii	"qnotify_t\000"
 2836      6966795F 
 2836      7400
 2837              	.LASF88:
 2838 0184 4576656E 		.ascii	"EventSource\000"
 2838      74536F75 
 2838      72636500 
 2839              	.LASF11:
 2840 0190 756E7369 		.ascii	"unsigned int\000"
 2840      676E6564 
 2840      20696E74 
 2840      00
 2841              	.LASF127:
 2842 019d 53657269 		.ascii	"SerialDriverVMT\000"
 2842      616C4472 
 2842      69766572 
 2842      564D5400 
 2843              	.LASF120:
 2844 01ad 69717565 		.ascii	"iqueue\000"
 2844      756500
 2845              	.LASF67:
 2846 01b4 705F6D73 		.ascii	"p_msgqueue\000"
 2846      67717565 
 2846      756500
 2847              	.LASF140:
 2848 01bf 68616C49 		.ascii	"halInit\000"
 2848      6E697400 
 2849              	.LASF29:
 2850 01c7 52657365 		.ascii	"Reserved1\000"
 2850      72766564 
 2850      3100
 2851              	.LASF27:
 2852 01d1 55415254 		.ascii	"UART_THR\000"
 2852      5F544852 
 2852      00
 2853              	.LASF117:
 2854 01da 6576656E 		.ascii	"event\000"
 2854      7400
 2855              	.LASF3:
 2856 01e0 73686F72 		.ascii	"short unsigned int\000"
 2856      7420756E 
 2856      7369676E 
 2856      65642069 
 2856      6E7400
 2857              	.LASF47:
 2858 01f3 6D73675F 		.ascii	"msg_t\000"
 2858      7400
 2859              	.LASF121:
ARM GAS  /tmp/cc3ZbfiP.s 			page 53


 2860 01f9 6F717565 		.ascii	"oqueue\000"
 2860      756500
 2861              	.LASF85:
 2862 0200 656C5F6E 		.ascii	"el_next\000"
 2862      65787400 
 2863              	.LASF107:
 2864 0208 77726974 		.ascii	"writet\000"
 2864      657400
 2865              	.LASF133:
 2866 020f 62797465 		.ascii	"byte_u8\000"
 2866      5F753800 
 2867              	.LASF16:
 2868 0217 526F5265 		.ascii	"RoReg\000"
 2868      6700
 2869              	.LASF20:
 2870 021d 55415254 		.ascii	"UART_CR\000"
 2870      5F435200 
 2871              	.LASF76:
 2872 0225 54687265 		.ascii	"ThreadsList\000"
 2872      6164734C 
 2872      69737400 
 2873              	.LASF48:
 2874 0231 6576656E 		.ascii	"eventmask_t\000"
 2874      746D6173 
 2874      6B5F7400 
 2875              	.LASF100:
 2876 023d 496E7075 		.ascii	"InputQueue\000"
 2876      74517565 
 2876      756500
 2877              	.LASF91:
 2878 0248 47656E65 		.ascii	"GenericQueue\000"
 2878      72696351 
 2878      75657565 
 2878      00
 2879              	.LASF73:
 2880 0255 54687265 		.ascii	"ThreadsQueue\000"
 2880      61647351 
 2880      75657565 
 2880      00
 2881              	.LASF103:
 2882 0262 77726974 		.ascii	"write\000"
 2882      6500
 2883              	.LASF37:
 2884 0268 55415254 		.ascii	"UART_TNCR\000"
 2884      5F544E43 
 2884      5200
 2885              	.LASF19:
 2886 0272 73697A65 		.ascii	"sizetype\000"
 2886      74797065 
 2886      00
 2887              	.LASF36:
 2888 027b 55415254 		.ascii	"UART_TNPR\000"
 2888      5F544E50 
 2888      5200
 2889              	.LASF93:
 2890 0285 715F636F 		.ascii	"q_counter\000"
 2890      756E7465 
ARM GAS  /tmp/cc3ZbfiP.s 			page 54


 2890      7200
 2891              	.LASF134:
 2892 028f 4750524D 		.ascii	"GPRMC_c\000"
 2892      435F6300 
 2893              	.LASF80:
 2894 0297 4D757465 		.ascii	"Mutex\000"
 2894      7800
 2895              	.LASF125:
 2896 029d 73635F6D 		.ascii	"sc_mr\000"
 2896      7200
 2897              	.LASF149:
 2898 02a3 6D61696E 		.ascii	"main\000"
 2898      00
 2899              	.LASF35:
 2900 02a8 55415254 		.ascii	"UART_RNCR\000"
 2900      5F524E43 
 2900      5200
 2901              	.LASF25:
 2902 02b2 55415254 		.ascii	"UART_SR\000"
 2902      5F535200 
 2903              	.LASF111:
 2904 02ba 696F666C 		.ascii	"ioflags_t\000"
 2904      6167735F 
 2904      7400
 2905              	.LASF146:
 2906 02c4 2F686F6D 		.ascii	"/home/david/Desktop/Embebidos/StampRepo\000"
 2906      652F6461 
 2906      7669642F 
 2906      4465736B 
 2906      746F702F 
 2907              	.LASF30:
 2908 02ec 55415254 		.ascii	"UART_RPR\000"
 2908      5F525052 
 2908      00
 2909              	.LASF144:
 2910 02f5 474E5520 		.ascii	"GNU C++ 4.9.3 20150529 (release) [ARM/embedded-4_9-"
 2910      432B2B20 
 2910      342E392E 
 2910      33203230 
 2910      31353035 
 2911 0328 6272616E 		.ascii	"branch revision 227977] -mcpu=cortex-m3 -mno-thumb-"
 2911      63682072 
 2911      65766973 
 2911      696F6E20 
 2911      32323739 
 2912 035b 696E7465 		.ascii	"interwork -mthumb -ggdb -O2 -fomit-frame-pointer -f"
 2912      72776F72 
 2912      6B202D6D 
 2912      7468756D 
 2912      62202D67 
 2913 038e 616C6967 		.ascii	"align-functions=16 -ffunction-sections -fdata-secti"
 2913      6E2D6675 
 2913      6E637469 
 2913      6F6E733D 
 2913      3136202D 
 2914 03c1 6F6E7320 		.ascii	"ons -fno-common -fno-rtti\000"
 2914      2D666E6F 
ARM GAS  /tmp/cc3ZbfiP.s 			page 55


 2914      2D636F6D 
 2914      6D6F6E20 
 2914      2D666E6F 
 2915              	.LASF87:
 2916 03db 656C5F6D 		.ascii	"el_mask\000"
 2916      61736B00 
 2917              	.LASF17:
 2918 03e3 576F5265 		.ascii	"WoReg\000"
 2918      6700
 2919              	.LASF28:
 2920 03e9 55415254 		.ascii	"UART_BRGR\000"
 2920      5F425247 
 2920      5200
 2921              	.LASF74:
 2922 03f3 31325468 		.ascii	"12ThreadsQueue\000"
 2922      72656164 
 2922      73517565 
 2922      756500
 2923              	.LASF126:
 2924 0402 53657269 		.ascii	"SerialConfig\000"
 2924      616C436F 
 2924      6E666967 
 2924      00
 2925              	.LASF122:
 2926 040f 75617274 		.ascii	"uart\000"
 2926      00
 2927              	.LASF150:
 2928 0414 77615468 		.ascii	"waThread1\000"
 2928      72656164 
 2928      3100
 2929              	.LASF45:
 2930 041e 74726566 		.ascii	"trefs_t\000"
 2930      735F7400 
 2931              	.LASF15:
 2932 0426 75696E74 		.ascii	"uint_fast16_t\000"
 2932      5F666173 
 2932      7431365F 
 2932      7400
 2933              	.LASF56:
 2934 0434 705F7072 		.ascii	"p_prev\000"
 2934      657600
 2935              	.LASF135:
 2936 043b 47504747 		.ascii	"GPGGA_c\000"
 2936      415F6300 
 2937              	.LASF46:
 2938 0443 74707269 		.ascii	"tprio_t\000"
 2938      6F5F7400 
 2939              	.LASF97:
 2940 044b 715F7264 		.ascii	"q_rdptr\000"
 2940      70747200 
 2941              	.LASF13:
 2942 0453 696E7433 		.ascii	"int32_t\000"
 2942      325F7400 
 2943              	.LASF1:
 2944 045b 756E7369 		.ascii	"unsigned char\000"
 2944      676E6564 
 2944      20636861 
ARM GAS  /tmp/cc3ZbfiP.s 			page 56


 2944      7200
 2945              	.LASF109:
 2946 0469 31314261 		.ascii	"11BaseChannel\000"
 2946      73654368 
 2946      616E6E65 
 2946      6C00
 2947              	.LASF70:
 2948 0477 705F6D74 		.ascii	"p_mtxlist\000"
 2948      786C6973 
 2948      7400
 2949              	.LASF2:
 2950 0481 73686F72 		.ascii	"short int\000"
 2950      7420696E 
 2950      7400
 2951              	.LASF62:
 2952 048b 705F7374 		.ascii	"p_state\000"
 2952      61746500 
 2953              	.LASF145:
 2954 0493 6D61696E 		.ascii	"main.cpp\000"
 2954      2E637070 
 2954      00
 2955              	.LASF60:
 2956 049c 705F6F6C 		.ascii	"p_older\000"
 2956      64657200 
 2957              	.LASF54:
 2958 04a4 65776D61 		.ascii	"ewmask\000"
 2958      736B00
 2959              	.LASF55:
 2960 04ab 705F6E65 		.ascii	"p_next\000"
 2960      787400
 2961              	.LASF43:
 2962 04b2 746D6F64 		.ascii	"tmode_t\000"
 2962      655F7400 
 2963              	.LASF63:
 2964 04ba 705F666C 		.ascii	"p_flags\000"
 2964      61677300 
 2965              	.LASF132:
 2966 04c2 4750524D 		.ascii	"GPRMC\000"
 2966      4300
 2967              	.LASF34:
 2968 04c8 55415254 		.ascii	"UART_RNPR\000"
 2968      5F524E50 
 2968      5200
 2969              	.LASF113:
 2970 04d2 53445F53 		.ascii	"SD_STOP\000"
 2970      544F5000 
 2971              	.LASF50:
 2972 04da 54687265 		.ascii	"Thread\000"
 2972      616400
 2973              	.LASF33:
 2974 04e1 55415254 		.ascii	"UART_TCR\000"
 2974      5F544352 
 2974      00
 2975              	.LASF69:
 2976 04ea 705F6570 		.ascii	"p_epending\000"
 2976      656E6469 
 2976      6E6700
ARM GAS  /tmp/cc3ZbfiP.s 			page 57


 2977              	.LASF112:
 2978 04f5 53445F55 		.ascii	"SD_UNINIT\000"
 2978      4E494E49 
 2978      5400
 2979              	.LASF14:
 2980 04ff 75696E74 		.ascii	"uint32_t\000"
 2980      33325F74 
 2980      00
 2981              	.LASF26:
 2982 0508 55415254 		.ascii	"UART_RHR\000"
 2982      5F524852 
 2982      00
 2983              	.LASF115:
 2984 0511 73647374 		.ascii	"sdstate_t\000"
 2984      6174655F 
 2984      7400
 2985              	.LASF116:
 2986 051b 53657269 		.ascii	"SerialDriver\000"
 2986      616C4472 
 2986      69766572 
 2986      00
 2987              	.LASF21:
 2988 0528 55415254 		.ascii	"UART_MR\000"
 2988      5F4D5200 
 2989              	.LASF8:
 2990 0530 6C6F6E67 		.ascii	"long unsigned int\000"
 2990      20756E73 
 2990      69676E65 
 2990      6420696E 
 2990      7400
 2991              	.LASF104:
 2992 0542 72656164 		.ascii	"read\000"
 2992      00
 2993              	.LASF90:
 2994 0547 63686172 		.ascii	"char\000"
 2994      00
 2995              	.LASF143:
 2996 054c 73645374 		.ascii	"sdStart\000"
 2996      61727400 
 2997              	.LASF147:
 2998 0554 34556172 		.ascii	"4Uart\000"
 2998      7400
 2999              	.LASF83:
 3000 055a 6D5F6E65 		.ascii	"m_next\000"
 3000      787400
 3001              	.LASF49:
 3002 0561 73797374 		.ascii	"systime_t\000"
 3002      696D655F 
 3002      7400
 3003              	.LASF71:
 3004 056b 705F7265 		.ascii	"p_realprio\000"
 3004      616C7072 
 3004      696F00
 3005              	.LASF5:
 3006 0576 5F5F696E 		.ascii	"__int32_t\000"
 3006      7433325F 
 3006      7400
ARM GAS  /tmp/cc3ZbfiP.s 			page 58


 3007              	.LASF40:
 3008 0580 55617274 		.ascii	"Uart\000"
 3008      00
 3009              	.LASF124:
 3010 0585 73635F73 		.ascii	"sc_speed\000"
 3010      70656564 
 3010      00
 3011              	.LASF128:
 3012 058e 67657466 		.ascii	"getflags\000"
 3012      6C616773 
 3012      00
 3013              	.LASF79:
 3014 0597 636F6E74 		.ascii	"context\000"
 3014      65787400 
 3015              	.LASF130:
 3016 059f 55617274 		.ascii	"UartBufferPtr\000"
 3016      42756666 
 3016      65725074 
 3016      7200
 3017              	.LASF23:
 3018 05ad 55415254 		.ascii	"UART_IDR\000"
 3018      5F494452 
 3018      00
 3019              	.LASF78:
 3020 05b6 696E7463 		.ascii	"intctx\000"
 3020      747800
 3021              	.LASF114:
 3022 05bd 53445F52 		.ascii	"SD_READY\000"
 3022      45414459 
 3022      00
 3023              	.LASF18:
 3024 05c6 52775265 		.ascii	"RwReg\000"
 3024      6700
 3025              	.LASF95:
 3026 05cc 715F746F 		.ascii	"q_top\000"
 3026      7000
 3027              	.LASF61:
 3028 05d2 705F6E61 		.ascii	"p_name\000"
 3028      6D6500
 3029              	.LASF89:
 3030 05d9 65735F6E 		.ascii	"es_next\000"
 3030      65787400 
 3031              	.LASF98:
 3032 05e1 715F6E6F 		.ascii	"q_notify\000"
 3032      74696679 
 3032      00
 3033              	.LASF131:
 3034 05ea 47504747 		.ascii	"GPGGA\000"
 3034      4100
 3035              	.LASF68:
 3036 05f0 705F6D73 		.ascii	"p_msg\000"
 3036      6700
 3037              	.LASF12:
 3038 05f6 75696E74 		.ascii	"uint8_t\000"
 3038      385F7400 
 3039              	.LASF110:
 3040 05fe 42617365 		.ascii	"BaseChannel\000"
ARM GAS  /tmp/cc3ZbfiP.s 			page 59


 3040      4368616E 
 3040      6E656C00 
 3041              	.LASF118:
 3042 060a 666C6167 		.ascii	"flags\000"
 3042      7300
 3043              	.LASF32:
 3044 0610 55415254 		.ascii	"UART_TPR\000"
 3044      5F545052 
 3044      00
 3045              	.LASF84:
 3046 0619 4576656E 		.ascii	"EventListener\000"
 3046      744C6973 
 3046      74656E65 
 3046      7200
 3047              	.LASF53:
 3048 0627 77746F62 		.ascii	"wtobjp\000"
 3048      6A7000
 3049              	.LASF86:
 3050 062e 656C5F6C 		.ascii	"el_listener\000"
 3050      69737465 
 3050      6E657200 
 3051              	.LASF106:
 3052 063a 67657477 		.ascii	"getwouldblock\000"
 3052      6F756C64 
 3052      626C6F63 
 3052      6B00
 3053              	.LASF22:
 3054 0648 55415254 		.ascii	"UART_IER\000"
 3054      5F494552 
 3054      00
 3055              	.LASF82:
 3056 0651 6D5F6F77 		.ascii	"m_owner\000"
 3056      6E657200 
 3057              	.LASF58:
 3058 0659 705F6374 		.ascii	"p_ctx\000"
 3058      7800
 3059              	.LASF66:
 3060 065f 705F7761 		.ascii	"p_waiting\000"
 3060      6974696E 
 3060      6700
 3061              	.LASF139:
 3062 0669 63684951 		.ascii	"chIQGetTimeout\000"
 3062      47657454 
 3062      696D656F 
 3062      757400
 3063              	.LASF142:
 3064 0678 63687072 		.ascii	"chprintf\000"
 3064      696E7466 
 3064      00
 3065              		.ident	"GCC: (GNU Tools for ARM Embedded Processors) 4.9.3 20150529 (release) [ARM/embedded-4_9-br
ARM GAS  /tmp/cc3ZbfiP.s 			page 60


DEFINED SYMBOLS
                            *ABS*:00000000 main.cpp
     /tmp/cc3ZbfiP.s:19     .text.startup.main:00000000 $t
     /tmp/cc3ZbfiP.s:25     .text.startup.main:00000000 main
     /tmp/cc3ZbfiP.s:301    .text.startup.main:00000158 $d
     .ARM.exidx.text.startup.main:00000000 $d
     /tmp/cc3ZbfiP.s:323    .rodata.str1.4:00000000 $d
                     .debug_frame:00000010 $d

UNDEFINED SYMBOLS
halInit
chSysInit
sdStart
chIQGetTimeout
strstr
strtok
chprintf
SD2
SD1
__aeabi_unwind_cpp_pr0
