ARM GAS  /tmp/ccNrqTVO.s 			page 1


   1              		.syntax unified
   2              		.cpu cortex-m3
   3              		.fpu softvfp
   4              		.eabi_attribute 20, 1
   5              		.eabi_attribute 21, 1
   6              		.eabi_attribute 23, 3
   7              		.eabi_attribute 24, 1
   8              		.eabi_attribute 25, 1
   9              		.eabi_attribute 26, 1
  10              		.eabi_attribute 30, 2
  11              		.eabi_attribute 34, 1
  12              		.eabi_attribute 18, 4
  13              		.thumb
  14              		.file	"main.cpp"
  15              		.text
  16              	.Ltext0:
  17              		.cfi_sections	.debug_frame
  18              		.section	.text._ZL9GPSThreadPv,"ax",%progbits
  19              		.align	2
  20              		.p2align 4,,15
  21              		.thumb
  22              		.thumb_func
  23              		.type	_ZL9GPSThreadPv, %function
  24              	_ZL9GPSThreadPv:
  25              		.fnstart
  26              	.LFB37:
  27              		.file 1 "main.cpp"
  28              		.loc 1 40 0
  29              		.cfi_startproc
  30              		@ args = 0, pretend = 0, frame = 168
  31              		@ frame_needed = 0, uses_anonymous_args = 0
  32              	.LVL0:
  33 0000 10B5     		push	{r4, lr}
  34              		.save {r4, lr}
  35              		.cfi_def_cfa_offset 8
  36              		.cfi_offset 4, -8
  37              		.cfi_offset 14, -4
  38              	.LBB2:
  39              		.loc 1 44 0
  40 0002 0024     		movs	r4, #0
  41              	.LBE2:
  42              		.loc 1 40 0
  43              		.pad #168
  44 0004 AAB0     		sub	sp, sp, #168
  45              		.cfi_def_cfa_offset 176
  46              	.LVL1:
  47              	.L2:
  48              	.LBB8:
  49              	.LBB3:
  50              		.loc 1 53 0
  51 0006 5348     		ldr	r0, .L17
  52 0008 4FF0FF31 		mov	r1, #-1
  53 000c FFF7FEFF 		bl	chIQGetTimeout
  54              	.LVL2:
  55              		.loc 1 55 0
  56 0010 642C     		cmp	r4, #100
  57              		.loc 1 53 0
ARM GAS  /tmp/ccNrqTVO.s 			page 2


  58 0012 C0B2     		uxtb	r0, r0
  59              	.LVL3:
  60              		.loc 1 55 0
  61 0014 28BF     		it	cs
  62 0016 0024     		movcs	r4, #0
  63              	.LVL4:
  64              	.LBB4:
  65              		.loc 1 57 0
  66 0018 0D28     		cmp	r0, #13
  67 001a 0BD0     		beq	.L4
  68              		.loc 1 57 0 is_stmt 0 discriminator 1
  69 001c 0A28     		cmp	r0, #10
  70 001e 09D0     		beq	.L4
  71              		.loc 1 100 0 is_stmt 1
  72 0020 A0F12003 		sub	r3, r0, #32
  73 0024 5E2B     		cmp	r3, #94
  74 0026 EED8     		bhi	.L2
  75              	.LVL5:
  76              		.loc 1 101 0
  77 0028 2AAB     		add	r3, sp, #168
  78 002a 2344     		add	r3, r3, r4
  79 002c 03F8640C 		strb	r0, [r3, #-100]
  80 0030 0134     		adds	r4, r4, #1
  81              	.LVL6:
  82 0032 E8E7     		b	.L2
  83              	.L4:
  84              	.LVL7:
  85              	.LBB5:
  86              		.loc 1 58 0
  87 0034 2AAB     		add	r3, sp, #168
  88 0036 1C44     		add	r4, r4, r3
  89              	.LVL8:
  90              		.loc 1 60 0
  91 0038 11A8     		add	r0, sp, #68
  92              	.LVL9:
  93              		.loc 1 58 0
  94 003a 0023     		movs	r3, #0
  95              		.loc 1 60 0
  96 003c 4649     		ldr	r1, .L17+4
  97              		.loc 1 58 0
  98 003e 04F8643C 		strb	r3, [r4, #-100]
  99              	.LVL10:
 100              		.loc 1 60 0
 101 0042 FFF7FEFF 		bl	strstr
 102              	.LVL11:
 103              	.LBB6:
 104              		.loc 1 61 0
 105 0046 0028     		cmp	r0, #0
 106 0048 00F08280 		beq	.L10
 107              	.LBB7:
 108              		.loc 1 63 0
 109 004c 11A8     		add	r0, sp, #68
 110              	.LVL12:
 111 004e 4349     		ldr	r1, .L17+8
 112 0050 FFF7FEFF 		bl	strtok
 113              	.LVL13:
 114 0054 6C46     		mov	r4, sp
ARM GAS  /tmp/ccNrqTVO.s 			page 3


 115              		.loc 1 64 0
 116 0056 0346     		mov	r3, r0
 117 0058 40B1     		cbz	r0, .L9
 118              	.LVL14:
 119              	.L8:
 120              		.loc 1 65 0
 121 005a 44F8043F 		str	r3, [r4, #4]!
 122              		.loc 1 66 0
 123 005e 0020     		movs	r0, #0
 124              	.LVL15:
 125 0060 3E49     		ldr	r1, .L17+8
 126 0062 FFF7FEFF 		bl	strtok
 127              	.LVL16:
 128              		.loc 1 64 0
 129 0066 0346     		mov	r3, r0
 130 0068 0028     		cmp	r0, #0
 131 006a F6D1     		bne	.L8
 132              	.L9:
 133              		.loc 1 72 0
 134 006c 4EF66024 		movw	r4, #60000
 135              		.loc 1 69 0
 136 0070 6820     		movs	r0, #104
 137              	.LVL17:
 138 0072 6B21     		movs	r1, #107
 139 0074 0022     		movs	r2, #0
 140 0076 FFF7FEFF 		bl	_Z13I2CWriteByteshhh
 141              	.LVL18:
 142              		.loc 1 70 0
 143 007a 6A46     		mov	r2, sp
 144 007c 3B21     		movs	r1, #59
 145 007e 0223     		movs	r3, #2
 146 0080 6820     		movs	r0, #104
 147 0082 FFF7FEFF 		bl	_Z12I2CReadByteshhPhh
 148              	.LVL19:
 149              		.loc 1 71 0
 150 0086 9DF80110 		ldrb	r1, [sp, #1]	@ zero_extendqisi2
 151 008a 9DF80030 		ldrb	r3, [sp]	@ zero_extendqisi2
 152              		.loc 1 77 0
 153 008e 3448     		ldr	r0, .L17+12
 154              		.loc 1 71 0
 155 0090 41EA0323 		orr	r3, r1, r3, lsl #8
 156              		.loc 1 72 0
 157 0094 03F5EA43 		add	r3, r3, #29952
 158 0098 3033     		adds	r3, r3, #48
 159 009a 9BB2     		uxth	r3, r3
 160 009c A342     		cmp	r3, r4
 161              		.loc 1 77 0
 162 009e 3149     		ldr	r1, .L17+16
 163              		.loc 1 72 0
 164 00a0 94BF     		ite	ls
 165 00a2 0024     		movls	r4, #0
 166 00a4 0124     		movhi	r4, #1
 167              	.LVL20:
 168              		.loc 1 77 0
 169 00a6 FFF7FEFF 		bl	chprintf
 170              	.LVL21:
 171              		.loc 1 78 0
ARM GAS  /tmp/ccNrqTVO.s 			page 4


 172 00aa 2D48     		ldr	r0, .L17+12
 173 00ac 0499     		ldr	r1, [sp, #16]
 174 00ae FFF7FEFF 		bl	chprintf
 175              	.LVL22:
 176              		.loc 1 79 0
 177 00b2 2B48     		ldr	r0, .L17+12
 178 00b4 2C49     		ldr	r1, .L17+20
 179 00b6 FFF7FEFF 		bl	chprintf
 180              	.LVL23:
 181              		.loc 1 80 0
 182 00ba 2948     		ldr	r0, .L17+12
 183 00bc 2B49     		ldr	r1, .L17+24
 184 00be FFF7FEFF 		bl	chprintf
 185              	.LVL24:
 186              		.loc 1 81 0
 187 00c2 2748     		ldr	r0, .L17+12
 188 00c4 0599     		ldr	r1, [sp, #20]
 189 00c6 FFF7FEFF 		bl	chprintf
 190              	.LVL25:
 191              		.loc 1 82 0
 192 00ca 2548     		ldr	r0, .L17+12
 193 00cc 2649     		ldr	r1, .L17+20
 194 00ce FFF7FEFF 		bl	chprintf
 195              	.LVL26:
 196              		.loc 1 83 0
 197 00d2 2348     		ldr	r0, .L17+12
 198 00d4 2649     		ldr	r1, .L17+28
 199 00d6 FFF7FEFF 		bl	chprintf
 200              	.LVL27:
 201              		.loc 1 84 0
 202 00da 2148     		ldr	r0, .L17+12
 203 00dc 0699     		ldr	r1, [sp, #24]
 204 00de FFF7FEFF 		bl	chprintf
 205              	.LVL28:
 206              		.loc 1 85 0
 207 00e2 1F48     		ldr	r0, .L17+12
 208 00e4 2049     		ldr	r1, .L17+20
 209 00e6 FFF7FEFF 		bl	chprintf
 210              	.LVL29:
 211              		.loc 1 86 0
 212 00ea 1D48     		ldr	r0, .L17+12
 213 00ec 2149     		ldr	r1, .L17+32
 214 00ee FFF7FEFF 		bl	chprintf
 215              	.LVL30:
 216              		.loc 1 87 0
 217 00f2 1B48     		ldr	r0, .L17+12
 218 00f4 0799     		ldr	r1, [sp, #28]
 219 00f6 FFF7FEFF 		bl	chprintf
 220              	.LVL31:
 221              		.loc 1 88 0
 222 00fa 1948     		ldr	r0, .L17+12
 223 00fc 1A49     		ldr	r1, .L17+20
 224 00fe FFF7FEFF 		bl	chprintf
 225              	.LVL32:
 226              		.loc 1 89 0
 227 0102 1748     		ldr	r0, .L17+12
 228 0104 1C49     		ldr	r1, .L17+36
ARM GAS  /tmp/ccNrqTVO.s 			page 5


 229 0106 FFF7FEFF 		bl	chprintf
 230              	.LVL33:
 231              		.loc 1 90 0
 232 010a 1548     		ldr	r0, .L17+12
 233 010c 0899     		ldr	r1, [sp, #32]
 234 010e FFF7FEFF 		bl	chprintf
 235              	.LVL34:
 236              		.loc 1 91 0
 237 0112 1348     		ldr	r0, .L17+12
 238 0114 1449     		ldr	r1, .L17+20
 239 0116 FFF7FEFF 		bl	chprintf
 240              	.LVL35:
 241              		.loc 1 92 0
 242 011a 1148     		ldr	r0, .L17+12
 243 011c 1749     		ldr	r1, .L17+40
 244 011e FFF7FEFF 		bl	chprintf
 245              	.LVL36:
 246              		.loc 1 93 0
 247 0122 0F48     		ldr	r0, .L17+12
 248 0124 0399     		ldr	r1, [sp, #12]
 249 0126 FFF7FEFF 		bl	chprintf
 250              	.LVL37:
 251              		.loc 1 94 0
 252 012a 0D48     		ldr	r0, .L17+12
 253 012c 0E49     		ldr	r1, .L17+20
 254 012e FFF7FEFF 		bl	chprintf
 255              	.LVL38:
 256              		.loc 1 95 0
 257 0132 0B48     		ldr	r0, .L17+12
 258 0134 1249     		ldr	r1, .L17+44
 259 0136 FFF7FEFF 		bl	chprintf
 260              	.LVL39:
 261              		.loc 1 96 0
 262 013a 2246     		mov	r2, r4
 263 013c 0848     		ldr	r0, .L17+12
 264 013e 1149     		ldr	r1, .L17+48
 265 0140 FFF7FEFF 		bl	chprintf
 266              	.LVL40:
 267              		.loc 1 97 0
 268 0144 0648     		ldr	r0, .L17+12
 269 0146 1049     		ldr	r1, .L17+52
 270 0148 FFF7FEFF 		bl	chprintf
 271              	.LVL41:
 272              	.LBE7:
 273              	.LBE6:
 274              		.loc 1 59 0
 275 014c 0024     		movs	r4, #0
 276              	.LVL42:
 277 014e 5AE7     		b	.L2
 278              	.LVL43:
 279              	.L10:
 280 0150 0446     		mov	r4, r0
 281 0152 58E7     		b	.L2
 282              	.L18:
 283              		.align	2
 284              	.L17:
 285 0154 10000000 		.word	SD1+16
ARM GAS  /tmp/ccNrqTVO.s 			page 6


 286 0158 00000000 		.word	.LC0
 287 015c 08000000 		.word	.LC1
 288 0160 00000000 		.word	SD2
 289 0164 0C000000 		.word	.LC2
 290 0168 14000000 		.word	.LC3
 291 016c 18000000 		.word	.LC4
 292 0170 20000000 		.word	.LC5
 293 0174 28000000 		.word	.LC6
 294 0178 30000000 		.word	.LC7
 295 017c 34000000 		.word	.LC8
 296 0180 3C000000 		.word	.LC9
 297 0184 44000000 		.word	.LC10
 298 0188 48000000 		.word	.LC11
 299              	.LBE5:
 300              	.LBE4:
 301              	.LBE3:
 302              	.LBE8:
 303              		.cfi_endproc
 304              	.LFE37:
 305              		.fnend
 306              		.size	_ZL9GPSThreadPv, .-_ZL9GPSThreadPv
 307              		.section	.text._ZL7Thread1Pv,"ax",%progbits
 308              		.align	2
 309              		.p2align 4,,15
 310              		.thumb
 311              		.thumb_func
 312              		.type	_ZL7Thread1Pv, %function
 313              	_ZL7Thread1Pv:
 314              		.fnstart
 315              	.LFB36:
 316              		.loc 1 25 0
 317              		.cfi_startproc
 318              		@ args = 0, pretend = 0, frame = 0
 319              		@ frame_needed = 0, uses_anonymous_args = 0
 320              	.LVL44:
 321 0000 70B5     		push	{r4, r5, r6, lr}
 322              		.save {r4, r5, r6, lr}
 323              		.cfi_def_cfa_offset 16
 324              		.cfi_offset 4, -16
 325              		.cfi_offset 5, -12
 326              		.cfi_offset 6, -8
 327              		.cfi_offset 14, -4
 328              		.loc 1 29 0
 329 0002 4FF40035 		mov	r5, #131072
 330 0006 2E46     		mov	r6, r5
 331 0008 054C     		ldr	r4, .L22
 332              	.LVL45:
 333              	.L20:
 334              		.loc 1 29 0 is_stmt 0 discriminator 1
 335 000a 6663     		str	r6, [r4, #52]
 336              		.loc 1 30 0 is_stmt 1 discriminator 1
 337 000c 4FF47A70 		mov	r0, #1000
 338 0010 FFF7FEFF 		bl	chThdSleep
 339              	.LVL46:
 340              		.loc 1 31 0 discriminator 1
 341 0014 2563     		str	r5, [r4, #48]
 342              		.loc 1 32 0 discriminator 1
ARM GAS  /tmp/ccNrqTVO.s 			page 7


 343 0016 0120     		movs	r0, #1
 344 0018 FFF7FEFF 		bl	chThdSleep
 345              	.LVL47:
 346              		.loc 1 25 0 discriminator 1
 347 001c F5E7     		b	.L20
 348              	.L23:
 349 001e 00BF     		.align	2
 350              	.L22:
 351 0020 00120E40 		.word	1074663936
 352              		.cfi_endproc
 353              	.LFE36:
 354              		.fnend
 355              		.size	_ZL7Thread1Pv, .-_ZL7Thread1Pv
 356              		.section	.text.startup.main,"ax",%progbits
 357              		.align	2
 358              		.p2align 4,,15
 359              		.global	main
 360              		.thumb
 361              		.thumb_func
 362              		.type	main, %function
 363              	main:
 364              		.fnstart
 365              	.LFB38:
 366              		.loc 1 111 0
 367              		.cfi_startproc
 368              		@ args = 0, pretend = 0, frame = 0
 369              		@ frame_needed = 0, uses_anonymous_args = 0
 370 0000 10B5     		push	{r4, lr}
 371              		.save {r4, lr}
 372              		.cfi_def_cfa_offset 8
 373              		.cfi_offset 4, -8
 374              		.cfi_offset 14, -4
 375              		.pad #8
 376 0002 82B0     		sub	sp, sp, #8
 377              		.cfi_def_cfa_offset 16
 378              		.loc 1 113 0
 379 0004 FFF7FEFF 		bl	halInit
 380              	.LVL48:
 381              		.loc 1 122 0
 382 0008 0024     		movs	r4, #0
 383              		.loc 1 114 0
 384 000a FFF7FEFF 		bl	chSysInit
 385              	.LVL49:
 386              		.loc 1 117 0
 387 000e 0E48     		ldr	r0, .L26
 388 0010 0021     		movs	r1, #0
 389 0012 FFF7FEFF 		bl	sdStart
 390              	.LVL50:
 391              		.loc 1 118 0
 392 0016 2146     		mov	r1, r4
 393 0018 0C48     		ldr	r0, .L26+4
 394 001a FFF7FEFF 		bl	sdStart
 395              	.LVL51:
 396              		.loc 1 120 0
 397 001e FFF7FEFF 		bl	_Z7I2CInitv
 398              	.LVL52:
 399              		.loc 1 122 0
ARM GAS  /tmp/ccNrqTVO.s 			page 8


 400 0022 0094     		str	r4, [sp]
 401 0024 4FF49871 		mov	r1, #304
 402 0028 4022     		movs	r2, #64
 403 002a 094B     		ldr	r3, .L26+8
 404 002c 0948     		ldr	r0, .L26+12
 405 002e FFF7FEFF 		bl	chThdCreateStatic
 406              	.LVL53:
 407              		.loc 1 123 0
 408 0032 0094     		str	r4, [sp]
 409 0034 4FF49661 		mov	r1, #1200
 410 0038 FF22     		movs	r2, #255
 411 003a 074B     		ldr	r3, .L26+16
 412 003c 0748     		ldr	r0, .L26+20
 413 003e FFF7FEFF 		bl	chThdCreateStatic
 414              	.LVL54:
 415              		.loc 1 128 0
 416 0042 2046     		mov	r0, r4
 417 0044 02B0     		add	sp, sp, #8
 418              		.cfi_def_cfa_offset 8
 419              		@ sp needed
 420 0046 10BD     		pop	{r4, pc}
 421              	.L27:
 422              		.align	2
 423              	.L26:
 424 0048 00000000 		.word	SD2
 425 004c 00000000 		.word	SD1
 426 0050 00000000 		.word	_ZL7Thread1Pv
 427 0054 00000000 		.word	.LANCHOR0
 428 0058 00000000 		.word	_ZL9GPSThreadPv
 429 005c 00000000 		.word	.LANCHOR1
 430              		.cfi_endproc
 431              	.LFE38:
 432              		.fnend
 433              		.size	main, .-main
 434              		.section	.bss._ZL9waThread1,"aw",%nobits
 435              		.align	3
 436              		.set	.LANCHOR0,. + 0
 437              		.type	_ZL9waThread1, %object
 438              		.size	_ZL9waThread1, 304
 439              	_ZL9waThread1:
 440 0000 00000000 		.space	304
 440      00000000 
 440      00000000 
 440      00000000 
 440      00000000 
 441              		.section	.rodata.str1.4,"aMS",%progbits,1
 442              		.align	2
 443              	.LC0:
 444 0000 24475052 		.ascii	"$GPRMC\000"
 444      4D4300
 445 0007 00       		.space	1
 446              	.LC1:
 447 0008 2C00     		.ascii	",\000"
 448 000a 0000     		.space	2
 449              	.LC2:
 450 000c 4C41543D 		.ascii	"LAT=\000"
 450      00
ARM GAS  /tmp/ccNrqTVO.s 			page 9


 451 0011 000000   		.space	3
 452              	.LC3:
 453 0014 3B00     		.ascii	";\000"
 454 0016 0000     		.space	2
 455              	.LC4:
 456 0018 434C4154 		.ascii	"CLAT=\000"
 456      3D00
 457 001e 0000     		.space	2
 458              	.LC5:
 459 0020 4C4F4E3D 		.ascii	"LON=\000"
 459      00
 460 0025 000000   		.space	3
 461              	.LC6:
 462 0028 434C4F4E 		.ascii	"CLON=\000"
 462      3D00
 463 002e 0000     		.space	2
 464              	.LC7:
 465 0030 53503D00 		.ascii	"SP=\000"
 466              	.LC8:
 467 0034 56414C3D 		.ascii	"VAL=\000"
 467      00
 468 0039 000000   		.space	3
 469              	.LC9:
 470 003c 4D50553D 		.ascii	"MPU=\000"
 470      00
 471 0041 000000   		.space	3
 472              	.LC10:
 473 0044 25306400 		.ascii	"%0d\000"
 474              	.LC11:
 475 0048 0D0A00   		.ascii	"\015\012\000"
 476              		.section	.bss._ZL7AreaGPS,"aw",%nobits
 477              		.align	3
 478              		.set	.LANCHOR1,. + 0
 479              		.type	_ZL7AreaGPS, %object
 480              		.size	_ZL7AreaGPS, 1200
 481              	_ZL7AreaGPS:
 482 0000 00000000 		.space	1200
 482      00000000 
 482      00000000 
 482      00000000 
 482      00000000 
 483              		.text
 484              	.Letext0:
 485              		.file 2 "/home/david/Desktop/Embebidos/gcc-arm-none-eabi-4_9-2015q3/arm-none-eabi/include/machine/
 486              		.file 3 "/home/david/Desktop/Embebidos/gcc-arm-none-eabi-4_9-2015q3/arm-none-eabi/include/sys/_std
 487              		.file 4 "/home/david/Desktop/Embebidos/gcc-arm-none-eabi-4_9-2015q3/arm-none-eabi/include/stdint.h
 488              		.file 5 "ChibiOS/os/hal/platforms/AT91SAM3S/at91lib/SAM3S.h"
 489              		.file 6 "/home/david/Desktop/Embebidos/gcc-arm-none-eabi-4_9-2015q3/lib/gcc/arm-none-eabi/4.9.3/in
 490              		.file 7 "ChibiOS/os/ports/GCC/ARMCMx/chtypes.h"
 491              		.file 8 "ChibiOS/os/kernel/include/chlists.h"
 492              		.file 9 "ChibiOS/os/kernel/include/chthreads.h"
 493              		.file 10 "ChibiOS/os/ports/GCC/ARMCMx/chcore_v7m.h"
 494              		.file 11 "ChibiOS/os/kernel/include/chmtx.h"
 495              		.file 12 "ChibiOS/os/kernel/include/chevents.h"
 496              		.file 13 "ChibiOS/os/kernel/include/chqueues.h"
 497              		.file 14 "ChibiOS/os/kernel/include/chioch.h"
 498              		.file 15 "ChibiOS/os/hal/platforms/AT91SAM3S/pal_lld.h"
ARM GAS  /tmp/ccNrqTVO.s 			page 10


 499              		.file 16 "ChibiOS/os/hal/include/serial.h"
 500              		.file 17 "ChibiOS/os/hal/platforms/AT91SAM3S/serial_lld.h"
 501              		.file 18 "/home/david/Desktop/Embebidos/gcc-arm-none-eabi-4_9-2015q3/arm-none-eabi/include/string.
 502              		.file 19 "./i2c.h"
 503              		.file 20 "ChibiOS/os/various/chprintf.h"
 504              		.file 21 "ChibiOS/os/hal/include/hal.h"
 505              		.file 22 "ChibiOS/os/kernel/include/chsys.h"
 506              		.file 23 "ChibiOS/os/hal/platforms/AT91SAM3S/core_cm3.h"
 507              		.section	.debug_info,"",%progbits
 508              	.Ldebug_info0:
 509 0000 3E140000 		.4byte	0x143e
 510 0004 0400     		.2byte	0x4
 511 0006 00000000 		.4byte	.Ldebug_abbrev0
 512 000a 04       		.byte	0x4
 513 000b 01       		.uleb128 0x1
 514 000c D6030000 		.4byte	.LASF234
 515 0010 04       		.byte	0x4
 516 0011 CD010000 		.4byte	.LASF235
 517 0015 42060000 		.4byte	.LASF236
 518 0019 18000000 		.4byte	.Ldebug_ranges0+0x18
 519 001d 00000000 		.4byte	0
 520 0021 00000000 		.4byte	.Ldebug_line0
 521 0025 02       		.uleb128 0x2
 522 0026 01       		.byte	0x1
 523 0027 06       		.byte	0x6
 524 0028 D6010000 		.4byte	.LASF0
 525 002c 03       		.uleb128 0x3
 526 002d ED000000 		.4byte	.LASF2
 527 0031 02       		.byte	0x2
 528 0032 1D       		.byte	0x1d
 529 0033 37000000 		.4byte	0x37
 530 0037 02       		.uleb128 0x2
 531 0038 01       		.byte	0x1
 532 0039 08       		.byte	0x8
 533 003a 0E020000 		.4byte	.LASF1
 534 003e 03       		.uleb128 0x3
 535 003f 5E070000 		.4byte	.LASF3
 536 0043 02       		.byte	0x2
 537 0044 29       		.byte	0x29
 538 0045 49000000 		.4byte	0x49
 539 0049 02       		.uleb128 0x2
 540 004a 02       		.byte	0x2
 541 004b 05       		.byte	0x5
 542 004c 6E080000 		.4byte	.LASF4
 543 0050 03       		.uleb128 0x3
 544 0051 B5020000 		.4byte	.LASF5
 545 0055 02       		.byte	0x2
 546 0056 2B       		.byte	0x2b
 547 0057 5B000000 		.4byte	0x5b
 548 005b 02       		.uleb128 0x2
 549 005c 02       		.byte	0x2
 550 005d 07       		.byte	0x7
 551 005e 5C090000 		.4byte	.LASF6
 552 0062 03       		.uleb128 0x3
 553 0063 82090000 		.4byte	.LASF7
 554 0067 02       		.byte	0x2
 555 0068 3F       		.byte	0x3f
ARM GAS  /tmp/ccNrqTVO.s 			page 11


 556 0069 6D000000 		.4byte	0x6d
 557 006d 02       		.uleb128 0x2
 558 006e 04       		.byte	0x4
 559 006f 05       		.byte	0x5
 560 0070 45010000 		.4byte	.LASF8
 561 0074 03       		.uleb128 0x3
 562 0075 3A050000 		.4byte	.LASF9
 563 0079 02       		.byte	0x2
 564 007a 41       		.byte	0x41
 565 007b 7F000000 		.4byte	0x7f
 566 007f 02       		.uleb128 0x2
 567 0080 04       		.byte	0x4
 568 0081 07       		.byte	0x7
 569 0082 C8040000 		.4byte	.LASF10
 570 0086 02       		.uleb128 0x2
 571 0087 08       		.byte	0x8
 572 0088 05       		.byte	0x5
 573 0089 5E050000 		.4byte	.LASF11
 574 008d 02       		.uleb128 0x2
 575 008e 08       		.byte	0x8
 576 008f 07       		.byte	0x7
 577 0090 F4060000 		.4byte	.LASF12
 578 0094 04       		.uleb128 0x4
 579 0095 04       		.byte	0x4
 580 0096 05       		.byte	0x5
 581 0097 696E7400 		.ascii	"int\000"
 582 009b 02       		.uleb128 0x2
 583 009c 04       		.byte	0x4
 584 009d 07       		.byte	0x7
 585 009e F0050000 		.4byte	.LASF13
 586 00a2 03       		.uleb128 0x3
 587 00a3 E9010000 		.4byte	.LASF14
 588 00a7 03       		.byte	0x3
 589 00a8 14       		.byte	0x14
 590 00a9 2C000000 		.4byte	0x2c
 591 00ad 03       		.uleb128 0x3
 592 00ae 94080000 		.4byte	.LASF15
 593 00b2 03       		.byte	0x3
 594 00b3 19       		.byte	0x19
 595 00b4 3E000000 		.4byte	0x3e
 596 00b8 03       		.uleb128 0x3
 597 00b9 13070000 		.4byte	.LASF16
 598 00bd 03       		.byte	0x3
 599 00be 1A       		.byte	0x1a
 600 00bf 50000000 		.4byte	0x50
 601 00c3 03       		.uleb128 0x3
 602 00c4 4D000000 		.4byte	.LASF17
 603 00c8 03       		.byte	0x3
 604 00c9 1F       		.byte	0x1f
 605 00ca 62000000 		.4byte	0x62
 606 00ce 03       		.uleb128 0x3
 607 00cf FA080000 		.4byte	.LASF18
 608 00d3 03       		.byte	0x3
 609 00d4 20       		.byte	0x20
 610 00d5 74000000 		.4byte	0x74
 611 00d9 03       		.uleb128 0x3
 612 00da 32090000 		.4byte	.LASF19
ARM GAS  /tmp/ccNrqTVO.s 			page 12


 613 00de 04       		.byte	0x4
 614 00df 3E       		.byte	0x3e
 615 00e0 9B000000 		.4byte	0x9b
 616 00e4 03       		.uleb128 0x3
 617 00e5 78080000 		.4byte	.LASF20
 618 00e9 05       		.byte	0x5
 619 00ea 37       		.byte	0x37
 620 00eb EF000000 		.4byte	0xef
 621 00ef 05       		.uleb128 0x5
 622 00f0 CE000000 		.4byte	0xce
 623 00f4 03       		.uleb128 0x3
 624 00f5 7C000000 		.4byte	.LASF21
 625 00f9 05       		.byte	0x5
 626 00fa 39       		.byte	0x39
 627 00fb EF000000 		.4byte	0xef
 628 00ff 03       		.uleb128 0x3
 629 0100 B0080000 		.4byte	.LASF22
 630 0104 05       		.byte	0x5
 631 0105 3A       		.byte	0x3a
 632 0106 EF000000 		.4byte	0xef
 633 010a 02       		.uleb128 0x2
 634 010b 04       		.byte	0x4
 635 010c 07       		.byte	0x7
 636 010d 1A000000 		.4byte	.LASF23
 637 0111 06       		.uleb128 0x6
 638 0112 7F000000 		.4byte	0x7f
 639 0116 21010000 		.4byte	0x121
 640 011a 07       		.uleb128 0x7
 641 011b 0A010000 		.4byte	0x10a
 642 011f 12       		.byte	0x12
 643 0120 00       		.byte	0
 644 0121 06       		.uleb128 0x6
 645 0122 7F000000 		.4byte	0x7f
 646 0126 31010000 		.4byte	0x131
 647 012a 07       		.uleb128 0x7
 648 012b 0A010000 		.4byte	0x10a
 649 012f 00       		.byte	0
 650 0130 00       		.byte	0
 651 0131 06       		.uleb128 0x6
 652 0132 7F000000 		.4byte	0x7f
 653 0136 41010000 		.4byte	0x141
 654 013a 07       		.uleb128 0x7
 655 013b 0A010000 		.4byte	0x10a
 656 013f 01       		.byte	0x1
 657 0140 00       		.byte	0
 658 0141 06       		.uleb128 0x6
 659 0142 7F000000 		.4byte	0x7f
 660 0146 51010000 		.4byte	0x151
 661 014a 07       		.uleb128 0x7
 662 014b 0A010000 		.4byte	0x10a
 663 014f 04       		.byte	0x4
 664 0150 00       		.byte	0
 665 0151 08       		.uleb128 0x8
 666 0152 9001     		.2byte	0x190
 667 0154 05       		.byte	0x5
 668 0155 DA06     		.2byte	0x6da
 669 0157 E2040000 		.4byte	.LASF100
ARM GAS  /tmp/ccNrqTVO.s 			page 13


 670 015b 4E050000 		.4byte	0x54e
 671 015f 09       		.uleb128 0x9
 672 0160 6F090000 		.4byte	.LASF24
 673 0164 05       		.byte	0x5
 674 0165 DB06     		.2byte	0x6db
 675 0167 F4000000 		.4byte	0xf4
 676 016b 00       		.byte	0
 677 016c 09       		.uleb128 0x9
 678 016d 17030000 		.4byte	.LASF25
 679 0171 05       		.byte	0x5
 680 0172 DC06     		.2byte	0x6dc
 681 0174 F4000000 		.4byte	0xf4
 682 0178 04       		.byte	0x4
 683 0179 09       		.uleb128 0x9
 684 017a B3030000 		.4byte	.LASF26
 685 017e 05       		.byte	0x5
 686 017f DD06     		.2byte	0x6dd
 687 0181 E4000000 		.4byte	0xe4
 688 0185 08       		.byte	0x8
 689 0186 09       		.uleb128 0x9
 690 0187 9A070000 		.4byte	.LASF27
 691 018b 05       		.byte	0x5
 692 018c DE06     		.2byte	0x6de
 693 018e 4E050000 		.4byte	0x54e
 694 0192 0C       		.byte	0xc
 695 0193 09       		.uleb128 0x9
 696 0194 4C070000 		.4byte	.LASF28
 697 0198 05       		.byte	0x5
 698 0199 DF06     		.2byte	0x6df
 699 019b F4000000 		.4byte	0xf4
 700 019f 10       		.byte	0x10
 701 01a0 09       		.uleb128 0x9
 702 01a1 24070000 		.4byte	.LASF29
 703 01a5 05       		.byte	0x5
 704 01a6 E006     		.2byte	0x6e0
 705 01a8 F4000000 		.4byte	0xf4
 706 01ac 14       		.byte	0x14
 707 01ad 09       		.uleb128 0x9
 708 01ae C5010000 		.4byte	.LASF30
 709 01b2 05       		.byte	0x5
 710 01b3 E106     		.2byte	0x6e1
 711 01b5 E4000000 		.4byte	0xe4
 712 01b9 18       		.byte	0x18
 713 01ba 09       		.uleb128 0x9
 714 01bb A4070000 		.4byte	.LASF31
 715 01bf 05       		.byte	0x5
 716 01c0 E206     		.2byte	0x6e2
 717 01c2 53050000 		.4byte	0x553
 718 01c6 1C       		.byte	0x1c
 719 01c7 09       		.uleb128 0x9
 720 01c8 32070000 		.4byte	.LASF32
 721 01cc 05       		.byte	0x5
 722 01cd E306     		.2byte	0x6e3
 723 01cf F4000000 		.4byte	0xf4
 724 01d3 20       		.byte	0x20
 725 01d4 09       		.uleb128 0x9
 726 01d5 CF060000 		.4byte	.LASF33
ARM GAS  /tmp/ccNrqTVO.s 			page 14


 727 01d9 05       		.byte	0x5
 728 01da E406     		.2byte	0x6e4
 729 01dc F4000000 		.4byte	0xf4
 730 01e0 24       		.byte	0x24
 731 01e1 09       		.uleb128 0x9
 732 01e2 6D010000 		.4byte	.LASF34
 733 01e6 05       		.byte	0x5
 734 01e7 E506     		.2byte	0x6e5
 735 01e9 E4000000 		.4byte	0xe4
 736 01ed 28       		.byte	0x28
 737 01ee 09       		.uleb128 0x9
 738 01ef AE070000 		.4byte	.LASF35
 739 01f3 05       		.byte	0x5
 740 01f4 E606     		.2byte	0x6e6
 741 01f6 58050000 		.4byte	0x558
 742 01fa 2C       		.byte	0x2c
 743 01fb 09       		.uleb128 0x9
 744 01fc B7050000 		.4byte	.LASF36
 745 0200 05       		.byte	0x5
 746 0201 E706     		.2byte	0x6e7
 747 0203 F4000000 		.4byte	0xf4
 748 0207 30       		.byte	0x30
 749 0208 09       		.uleb128 0x9
 750 0209 0F050000 		.4byte	.LASF37
 751 020d 05       		.byte	0x5
 752 020e E806     		.2byte	0x6e8
 753 0210 F4000000 		.4byte	0xf4
 754 0214 34       		.byte	0x34
 755 0215 09       		.uleb128 0x9
 756 0216 22080000 		.4byte	.LASF38
 757 021a 05       		.byte	0x5
 758 021b E906     		.2byte	0x6e9
 759 021d FF000000 		.4byte	0xff
 760 0221 38       		.byte	0x38
 761 0222 09       		.uleb128 0x9
 762 0223 DD020000 		.4byte	.LASF39
 763 0227 05       		.byte	0x5
 764 0228 EA06     		.2byte	0x6ea
 765 022a E4000000 		.4byte	0xe4
 766 022e 3C       		.byte	0x3c
 767 022f 09       		.uleb128 0x9
 768 0230 90050000 		.4byte	.LASF40
 769 0234 05       		.byte	0x5
 770 0235 EB06     		.2byte	0x6eb
 771 0237 F4000000 		.4byte	0xf4
 772 023b 40       		.byte	0x40
 773 023c 09       		.uleb128 0x9
 774 023d 45050000 		.4byte	.LASF41
 775 0241 05       		.byte	0x5
 776 0242 EC06     		.2byte	0x6ec
 777 0244 F4000000 		.4byte	0xf4
 778 0248 44       		.byte	0x44
 779 0249 09       		.uleb128 0x9
 780 024a 11080000 		.4byte	.LASF42
 781 024e 05       		.byte	0x5
 782 024f ED06     		.2byte	0x6ed
 783 0251 E4000000 		.4byte	0xe4
ARM GAS  /tmp/ccNrqTVO.s 			page 15


 784 0255 48       		.byte	0x48
 785 0256 09       		.uleb128 0x9
 786 0257 E1090000 		.4byte	.LASF43
 787 025b 05       		.byte	0x5
 788 025c EE06     		.2byte	0x6ee
 789 025e E4000000 		.4byte	0xe4
 790 0262 4C       		.byte	0x4c
 791 0263 09       		.uleb128 0x9
 792 0264 0E030000 		.4byte	.LASF44
 793 0268 05       		.byte	0x5
 794 0269 EF06     		.2byte	0x6ef
 795 026b F4000000 		.4byte	0xf4
 796 026f 50       		.byte	0x50
 797 0270 09       		.uleb128 0x9
 798 0271 CD020000 		.4byte	.LASF45
 799 0275 05       		.byte	0x5
 800 0276 F006     		.2byte	0x6f0
 801 0278 F4000000 		.4byte	0xf4
 802 027c 54       		.byte	0x54
 803 027d 09       		.uleb128 0x9
 804 027e 08080000 		.4byte	.LASF46
 805 0282 05       		.byte	0x5
 806 0283 F106     		.2byte	0x6f1
 807 0285 E4000000 		.4byte	0xe4
 808 0289 58       		.byte	0x58
 809 028a 09       		.uleb128 0x9
 810 028b B8070000 		.4byte	.LASF47
 811 028f 05       		.byte	0x5
 812 0290 F206     		.2byte	0x6f2
 813 0292 5D050000 		.4byte	0x55d
 814 0296 5C       		.byte	0x5c
 815 0297 09       		.uleb128 0x9
 816 0298 1C020000 		.4byte	.LASF48
 817 029c 05       		.byte	0x5
 818 029d F306     		.2byte	0x6f3
 819 029f F4000000 		.4byte	0xf4
 820 02a3 60       		.byte	0x60
 821 02a4 09       		.uleb128 0x9
 822 02a5 6C020000 		.4byte	.LASF49
 823 02a9 05       		.byte	0x5
 824 02aa F406     		.2byte	0x6f4
 825 02ac F4000000 		.4byte	0xf4
 826 02b0 64       		.byte	0x64
 827 02b1 09       		.uleb128 0x9
 828 02b2 3B070000 		.4byte	.LASF50
 829 02b6 05       		.byte	0x5
 830 02b7 F506     		.2byte	0x6f5
 831 02b9 E4000000 		.4byte	0xe4
 832 02bd 68       		.byte	0x68
 833 02be 09       		.uleb128 0x9
 834 02bf C2070000 		.4byte	.LASF51
 835 02c3 05       		.byte	0x5
 836 02c4 F606     		.2byte	0x6f6
 837 02c6 62050000 		.4byte	0x562
 838 02ca 6C       		.byte	0x6c
 839 02cb 09       		.uleb128 0x9
 840 02cc 76010000 		.4byte	.LASF52
ARM GAS  /tmp/ccNrqTVO.s 			page 16


 841 02d0 05       		.byte	0x5
 842 02d1 F706     		.2byte	0x6f7
 843 02d3 67050000 		.4byte	0x567
 844 02d7 70       		.byte	0x70
 845 02d8 09       		.uleb128 0x9
 846 02d9 CC070000 		.4byte	.LASF53
 847 02dd 05       		.byte	0x5
 848 02de F806     		.2byte	0x6f8
 849 02e0 6C050000 		.4byte	0x56c
 850 02e4 78       		.byte	0x78
 851 02e5 09       		.uleb128 0x9
 852 02e6 7C050000 		.4byte	.LASF54
 853 02ea 05       		.byte	0x5
 854 02eb F906     		.2byte	0x6f9
 855 02ed F4000000 		.4byte	0xf4
 856 02f1 80       		.byte	0x80
 857 02f2 09       		.uleb128 0x9
 858 02f3 C0050000 		.4byte	.LASF55
 859 02f7 05       		.byte	0x5
 860 02f8 FA06     		.2byte	0x6fa
 861 02fa F4000000 		.4byte	0xf4
 862 02fe 84       		.byte	0x84
 863 02ff 09       		.uleb128 0x9
 864 0300 00000000 		.4byte	.LASF56
 865 0304 05       		.byte	0x5
 866 0305 FB06     		.2byte	0x6fb
 867 0307 E4000000 		.4byte	0xe4
 868 030b 88       		.byte	0x88
 869 030c 09       		.uleb128 0x9
 870 030d DB000000 		.4byte	.LASF57
 871 0311 05       		.byte	0x5
 872 0312 FC06     		.2byte	0x6fc
 873 0314 FF000000 		.4byte	0xff
 874 0318 8C       		.byte	0x8c
 875 0319 09       		.uleb128 0x9
 876 031a 33010000 		.4byte	.LASF58
 877 031e 05       		.byte	0x5
 878 031f FD06     		.2byte	0x6fd
 879 0321 F4000000 		.4byte	0xf4
 880 0325 90       		.byte	0x90
 881 0326 09       		.uleb128 0x9
 882 0327 A9010000 		.4byte	.LASF59
 883 032b 05       		.byte	0x5
 884 032c FE06     		.2byte	0x6fe
 885 032e F4000000 		.4byte	0xf4
 886 0332 94       		.byte	0x94
 887 0333 09       		.uleb128 0x9
 888 0334 91060000 		.4byte	.LASF60
 889 0338 05       		.byte	0x5
 890 0339 FF06     		.2byte	0x6ff
 891 033b E4000000 		.4byte	0xe4
 892 033f 98       		.byte	0x98
 893 0340 09       		.uleb128 0x9
 894 0341 D6070000 		.4byte	.LASF61
 895 0345 05       		.byte	0x5
 896 0346 0007     		.2byte	0x700
 897 0348 71050000 		.4byte	0x571
ARM GAS  /tmp/ccNrqTVO.s 			page 17


 898 034c 9C       		.byte	0x9c
 899 034d 09       		.uleb128 0x9
 900 034e 64010000 		.4byte	.LASF62
 901 0352 05       		.byte	0x5
 902 0353 0107     		.2byte	0x701
 903 0355 F4000000 		.4byte	0xf4
 904 0359 A0       		.byte	0xa0
 905 035a 09       		.uleb128 0x9
 906 035b FD000000 		.4byte	.LASF63
 907 035f 05       		.byte	0x5
 908 0360 0207     		.2byte	0x702
 909 0362 F4000000 		.4byte	0xf4
 910 0366 A4       		.byte	0xa4
 911 0367 09       		.uleb128 0x9
 912 0368 7E060000 		.4byte	.LASF64
 913 036c 05       		.byte	0x5
 914 036d 0307     		.2byte	0x703
 915 036f E4000000 		.4byte	0xe4
 916 0373 A8       		.byte	0xa8
 917 0374 09       		.uleb128 0x9
 918 0375 E0070000 		.4byte	.LASF65
 919 0379 05       		.byte	0x5
 920 037a 0407     		.2byte	0x704
 921 037c 76050000 		.4byte	0x576
 922 0380 AC       		.byte	0xac
 923 0381 09       		.uleb128 0x9
 924 0382 F4070000 		.4byte	.LASF66
 925 0386 05       		.byte	0x5
 926 0387 0507     		.2byte	0x705
 927 0389 F4000000 		.4byte	0xf4
 928 038d B0       		.byte	0xb0
 929 038e 09       		.uleb128 0x9
 930 038f 54070000 		.4byte	.LASF67
 931 0393 05       		.byte	0x5
 932 0394 0607     		.2byte	0x706
 933 0396 F4000000 		.4byte	0xf4
 934 039a B4       		.byte	0xb4
 935 039b 09       		.uleb128 0x9
 936 039c 69000000 		.4byte	.LASF68
 937 03a0 05       		.byte	0x5
 938 03a1 0707     		.2byte	0x707
 939 03a3 E4000000 		.4byte	0xe4
 940 03a7 B8       		.byte	0xb8
 941 03a8 09       		.uleb128 0x9
 942 03a9 EA070000 		.4byte	.LASF69
 943 03ad 05       		.byte	0x5
 944 03ae 0807     		.2byte	0x708
 945 03b0 7B050000 		.4byte	0x57b
 946 03b4 BC       		.byte	0xbc
 947 03b5 09       		.uleb128 0x9
 948 03b6 B3010000 		.4byte	.LASF70
 949 03ba 05       		.byte	0x5
 950 03bb 0907     		.2byte	0x709
 951 03bd F4000000 		.4byte	0xf4
 952 03c1 C0       		.byte	0xc0
 953 03c2 09       		.uleb128 0x9
 954 03c3 25060000 		.4byte	.LASF71
ARM GAS  /tmp/ccNrqTVO.s 			page 18


 955 03c7 05       		.byte	0x5
 956 03c8 0A07     		.2byte	0x70a
 957 03ca F4000000 		.4byte	0xf4
 958 03ce C4       		.byte	0xc4
 959 03cf 09       		.uleb128 0x9
 960 03d0 7E030000 		.4byte	.LASF72
 961 03d4 05       		.byte	0x5
 962 03d5 0B07     		.2byte	0x70b
 963 03d7 E4000000 		.4byte	0xe4
 964 03db C8       		.byte	0xc8
 965 03dc 09       		.uleb128 0x9
 966 03dd 82020000 		.4byte	.LASF73
 967 03e1 05       		.byte	0x5
 968 03e2 0C07     		.2byte	0x70c
 969 03e4 80050000 		.4byte	0x580
 970 03e8 CC       		.byte	0xcc
 971 03e9 09       		.uleb128 0x9
 972 03ea 03030000 		.4byte	.LASF74
 973 03ee 05       		.byte	0x5
 974 03ef 0D07     		.2byte	0x70d
 975 03f1 F4000000 		.4byte	0xf4
 976 03f5 D0       		.byte	0xd0
 977 03f6 09       		.uleb128 0x9
 978 03f7 4A090000 		.4byte	.LASF75
 979 03fb 05       		.byte	0x5
 980 03fc 0E07     		.2byte	0x70e
 981 03fe F4000000 		.4byte	0xf4
 982 0402 D4       		.byte	0xd4
 983 0403 09       		.uleb128 0x9
 984 0404 7B070000 		.4byte	.LASF76
 985 0408 05       		.byte	0x5
 986 0409 0F07     		.2byte	0x70f
 987 040b E4000000 		.4byte	0xe4
 988 040f D8       		.byte	0xd8
 989 0410 09       		.uleb128 0x9
 990 0411 8D020000 		.4byte	.LASF77
 991 0415 05       		.byte	0x5
 992 0416 1007     		.2byte	0x710
 993 0418 85050000 		.4byte	0x585
 994 041c DC       		.byte	0xdc
 995 041d 09       		.uleb128 0x9
 996 041e EC020000 		.4byte	.LASF78
 997 0422 05       		.byte	0x5
 998 0423 1107     		.2byte	0x711
 999 0425 E4000000 		.4byte	0xe4
 1000 0429 E0       		.byte	0xe0
 1001 042a 09       		.uleb128 0x9
 1002 042b 82000000 		.4byte	.LASF79
 1003 042f 05       		.byte	0x5
 1004 0430 1207     		.2byte	0x712
 1005 0432 FF000000 		.4byte	0xff
 1006 0436 E4       		.byte	0xe4
 1007 0437 09       		.uleb128 0x9
 1008 0438 4B020000 		.4byte	.LASF80
 1009 043c 05       		.byte	0x5
 1010 043d 1307     		.2byte	0x713
 1011 043f E4000000 		.4byte	0xe4
ARM GAS  /tmp/ccNrqTVO.s 			page 19


 1012 0443 E8       		.byte	0xe8
 1013 0444 09       		.uleb128 0x9
 1014 0445 98020000 		.4byte	.LASF81
 1015 0449 05       		.byte	0x5
 1016 044a 1407     		.2byte	0x714
 1017 044c 8A050000 		.4byte	0x58a
 1018 0450 EC       		.byte	0xec
 1019 0451 0A       		.uleb128 0xa
 1020 0452 62080000 		.4byte	.LASF82
 1021 0456 05       		.byte	0x5
 1022 0457 1507     		.2byte	0x715
 1023 0459 FF000000 		.4byte	0xff
 1024 045d 0001     		.2byte	0x100
 1025 045f 0A       		.uleb128 0xa
 1026 0460 A3020000 		.4byte	.LASF83
 1027 0464 05       		.byte	0x5
 1028 0465 1607     		.2byte	0x716
 1029 0467 8F050000 		.4byte	0x58f
 1030 046b 0401     		.2byte	0x104
 1031 046d 0A       		.uleb128 0xa
 1032 046e E7080000 		.4byte	.LASF84
 1033 0472 05       		.byte	0x5
 1034 0473 1707     		.2byte	0x717
 1035 0475 FF000000 		.4byte	0xff
 1036 0479 5001     		.2byte	0x150
 1037 047b 0A       		.uleb128 0xa
 1038 047c 74060000 		.4byte	.LASF85
 1039 0480 05       		.byte	0x5
 1040 0481 1807     		.2byte	0x718
 1041 0483 F4000000 		.4byte	0xf4
 1042 0487 5401     		.2byte	0x154
 1043 0489 0A       		.uleb128 0xa
 1044 048a 1B060000 		.4byte	.LASF86
 1045 048e 05       		.byte	0x5
 1046 048f 1907     		.2byte	0x719
 1047 0491 F4000000 		.4byte	0xf4
 1048 0495 5801     		.2byte	0x158
 1049 0497 0A       		.uleb128 0xa
 1050 0498 C7080000 		.4byte	.LASF87
 1051 049c 05       		.byte	0x5
 1052 049d 1A07     		.2byte	0x71a
 1053 049f E4000000 		.4byte	0xe4
 1054 04a3 5C01     		.2byte	0x15c
 1055 04a5 0A       		.uleb128 0xa
 1056 04a6 B6000000 		.4byte	.LASF88
 1057 04aa 05       		.byte	0x5
 1058 04ab 1B07     		.2byte	0x71b
 1059 04ad E4000000 		.4byte	0xe4
 1060 04b1 6001     		.2byte	0x160
 1061 04b3 0A       		.uleb128 0xa
 1062 04b4 98050000 		.4byte	.LASF89
 1063 04b8 05       		.byte	0x5
 1064 04b9 1C07     		.2byte	0x71c
 1065 04bb E4000000 		.4byte	0xe4
 1066 04bf 6401     		.2byte	0x164
 1067 04c1 0A       		.uleb128 0xa
 1068 04c2 1C070000 		.4byte	.LASF90
ARM GAS  /tmp/ccNrqTVO.s 			page 20


 1069 04c6 05       		.byte	0x5
 1070 04c7 1D07     		.2byte	0x71d
 1071 04c9 FF000000 		.4byte	0xff
 1072 04cd 6801     		.2byte	0x168
 1073 04cf 0A       		.uleb128 0xa
 1074 04d0 7A020000 		.4byte	.LASF91
 1075 04d4 05       		.byte	0x5
 1076 04d5 1E07     		.2byte	0x71e
 1077 04d7 FF000000 		.4byte	0xff
 1078 04db 6C01     		.2byte	0x16c
 1079 04dd 0A       		.uleb128 0xa
 1080 04de C9000000 		.4byte	.LASF92
 1081 04e2 05       		.byte	0x5
 1082 04e3 1F07     		.2byte	0x71f
 1083 04e5 FF000000 		.4byte	0xff
 1084 04e9 7001     		.2byte	0x170
 1085 04eb 0A       		.uleb128 0xa
 1086 04ec DF060000 		.4byte	.LASF93
 1087 04f0 05       		.byte	0x5
 1088 04f1 2007     		.2byte	0x720
 1089 04f3 FF000000 		.4byte	0xff
 1090 04f7 7401     		.2byte	0x174
 1091 04f9 0A       		.uleb128 0xa
 1092 04fa 05020000 		.4byte	.LASF94
 1093 04fe 05       		.byte	0x5
 1094 04ff 2107     		.2byte	0x721
 1095 0501 FF000000 		.4byte	0xff
 1096 0505 7801     		.2byte	0x178
 1097 0507 0A       		.uleb128 0xa
 1098 0508 2B080000 		.4byte	.LASF95
 1099 050c 05       		.byte	0x5
 1100 050d 2207     		.2byte	0x722
 1101 050f FF000000 		.4byte	0xff
 1102 0513 7C01     		.2byte	0x17c
 1103 0515 0A       		.uleb128 0xa
 1104 0516 2E020000 		.4byte	.LASF96
 1105 051a 05       		.byte	0x5
 1106 051b 2307     		.2byte	0x723
 1107 051d FF000000 		.4byte	0xff
 1108 0521 8001     		.2byte	0x180
 1109 0523 0A       		.uleb128 0xa
 1110 0524 52080000 		.4byte	.LASF97
 1111 0528 05       		.byte	0x5
 1112 0529 2407     		.2byte	0x724
 1113 052b FF000000 		.4byte	0xff
 1114 052f 8401     		.2byte	0x184
 1115 0531 0A       		.uleb128 0xa
 1116 0532 0E0A0000 		.4byte	.LASF98
 1117 0536 05       		.byte	0x5
 1118 0537 2507     		.2byte	0x725
 1119 0539 F4000000 		.4byte	0xf4
 1120 053d 8801     		.2byte	0x188
 1121 053f 0A       		.uleb128 0xa
 1122 0540 87050000 		.4byte	.LASF99
 1123 0544 05       		.byte	0x5
 1124 0545 2607     		.2byte	0x726
 1125 0547 E4000000 		.4byte	0xe4
ARM GAS  /tmp/ccNrqTVO.s 			page 21


 1126 054b 8C01     		.2byte	0x18c
 1127 054d 00       		.byte	0
 1128 054e 05       		.uleb128 0x5
 1129 054f 21010000 		.4byte	0x121
 1130 0553 05       		.uleb128 0x5
 1131 0554 21010000 		.4byte	0x121
 1132 0558 05       		.uleb128 0x5
 1133 0559 21010000 		.4byte	0x121
 1134 055d 05       		.uleb128 0x5
 1135 055e 21010000 		.4byte	0x121
 1136 0562 05       		.uleb128 0x5
 1137 0563 21010000 		.4byte	0x121
 1138 0567 05       		.uleb128 0x5
 1139 0568 31010000 		.4byte	0x131
 1140 056c 05       		.uleb128 0x5
 1141 056d 31010000 		.4byte	0x131
 1142 0571 05       		.uleb128 0x5
 1143 0572 21010000 		.4byte	0x121
 1144 0576 05       		.uleb128 0x5
 1145 0577 21010000 		.4byte	0x121
 1146 057b 05       		.uleb128 0x5
 1147 057c 21010000 		.4byte	0x121
 1148 0580 05       		.uleb128 0x5
 1149 0581 21010000 		.4byte	0x121
 1150 0585 05       		.uleb128 0x5
 1151 0586 21010000 		.4byte	0x121
 1152 058a 05       		.uleb128 0x5
 1153 058b 41010000 		.4byte	0x141
 1154 058f 05       		.uleb128 0x5
 1155 0590 11010000 		.4byte	0x111
 1156 0594 0B       		.uleb128 0xb
 1157 0595 50696F00 		.ascii	"Pio\000"
 1158 0599 05       		.byte	0x5
 1159 059a 2707     		.2byte	0x727
 1160 059c 51010000 		.4byte	0x151
 1161 05a0 08       		.uleb128 0x8
 1162 05a1 2801     		.2byte	0x128
 1163 05a3 05       		.byte	0x5
 1164 05a4 0817     		.2byte	0x1708
 1165 05a6 68070000 		.4byte	.LASF101
 1166 05aa BD060000 		.4byte	0x6bd
 1167 05ae 09       		.uleb128 0x9
 1168 05af D5050000 		.4byte	.LASF102
 1169 05b3 05       		.byte	0x5
 1170 05b4 0917     		.2byte	0x1709
 1171 05b6 F4000000 		.4byte	0xf4
 1172 05ba 00       		.byte	0
 1173 05bb 09       		.uleb128 0x9
 1174 05bc BF080000 		.4byte	.LASF103
 1175 05c0 05       		.byte	0x5
 1176 05c1 0A17     		.2byte	0x170a
 1177 05c3 FF000000 		.4byte	0xff
 1178 05c7 04       		.byte	0x4
 1179 05c8 09       		.uleb128 0x9
 1180 05c9 C0000000 		.4byte	.LASF104
 1181 05cd 05       		.byte	0x5
 1182 05ce 0B17     		.2byte	0x170b
ARM GAS  /tmp/ccNrqTVO.s 			page 22


 1183 05d0 F4000000 		.4byte	0xf4
 1184 05d4 08       		.byte	0x8
 1185 05d5 09       		.uleb128 0x9
 1186 05d6 73000000 		.4byte	.LASF105
 1187 05da 05       		.byte	0x5
 1188 05db 0C17     		.2byte	0x170c
 1189 05dd F4000000 		.4byte	0xf4
 1190 05e1 0C       		.byte	0xc
 1191 05e2 09       		.uleb128 0x9
 1192 05e3 52030000 		.4byte	.LASF106
 1193 05e7 05       		.byte	0x5
 1194 05e8 0D17     		.2byte	0x170d
 1195 05ea E4000000 		.4byte	0xe4
 1196 05ee 10       		.byte	0x10
 1197 05ef 09       		.uleb128 0x9
 1198 05f0 AE000000 		.4byte	.LASF107
 1199 05f4 05       		.byte	0x5
 1200 05f5 0E17     		.2byte	0x170e
 1201 05f7 E4000000 		.4byte	0xe4
 1202 05fb 14       		.byte	0x14
 1203 05fc 09       		.uleb128 0x9
 1204 05fd E9090000 		.4byte	.LASF108
 1205 0601 05       		.byte	0x5
 1206 0602 0F17     		.2byte	0x170f
 1207 0604 E4000000 		.4byte	0xe4
 1208 0608 18       		.byte	0x18
 1209 0609 09       		.uleb128 0x9
 1210 060a BB030000 		.4byte	.LASF109
 1211 060e 05       		.byte	0x5
 1212 060f 1017     		.2byte	0x1710
 1213 0611 F4000000 		.4byte	0xf4
 1214 0615 1C       		.byte	0x1c
 1215 0616 09       		.uleb128 0x9
 1216 0617 86070000 		.4byte	.LASF110
 1217 061b 05       		.byte	0x5
 1218 061c 1117     		.2byte	0x1711
 1219 061e FF000000 		.4byte	0xff
 1220 0622 20       		.byte	0x20
 1221 0623 09       		.uleb128 0x9
 1222 0624 9A070000 		.4byte	.LASF27
 1223 0628 05       		.byte	0x5
 1224 0629 1217     		.2byte	0x1712
 1225 062b CD060000 		.4byte	0x6cd
 1226 062f 24       		.byte	0x24
 1227 0630 0A       		.uleb128 0xa
 1228 0631 54020000 		.4byte	.LASF111
 1229 0635 05       		.byte	0x5
 1230 0636 1317     		.2byte	0x1713
 1231 0638 FF000000 		.4byte	0xff
 1232 063c 0001     		.2byte	0x100
 1233 063e 0A       		.uleb128 0xa
 1234 063f 7E080000 		.4byte	.LASF112
 1235 0643 05       		.byte	0x5
 1236 0644 1417     		.2byte	0x1714
 1237 0646 FF000000 		.4byte	0xff
 1238 064a 0401     		.2byte	0x104
 1239 064c 0A       		.uleb128 0xa
ARM GAS  /tmp/ccNrqTVO.s 			page 23


 1240 064d C6060000 		.4byte	.LASF113
 1241 0651 05       		.byte	0x5
 1242 0652 1517     		.2byte	0x1715
 1243 0654 FF000000 		.4byte	0xff
 1244 0658 0801     		.2byte	0x108
 1245 065a 0A       		.uleb128 0xa
 1246 065b 25020000 		.4byte	.LASF114
 1247 065f 05       		.byte	0x5
 1248 0660 1617     		.2byte	0x1716
 1249 0662 FF000000 		.4byte	0xff
 1250 0666 0C01     		.2byte	0x10c
 1251 0668 0A       		.uleb128 0xa
 1252 0669 3A030000 		.4byte	.LASF115
 1253 066d 05       		.byte	0x5
 1254 066e 1717     		.2byte	0x1717
 1255 0670 FF000000 		.4byte	0xff
 1256 0674 1001     		.2byte	0x110
 1257 0676 0A       		.uleb128 0xa
 1258 0677 1B090000 		.4byte	.LASF116
 1259 067b 05       		.byte	0x5
 1260 067c 1817     		.2byte	0x1718
 1261 067e FF000000 		.4byte	0xff
 1262 0682 1401     		.2byte	0x114
 1263 0684 0A       		.uleb128 0xa
 1264 0685 60030000 		.4byte	.LASF117
 1265 0689 05       		.byte	0x5
 1266 068a 1917     		.2byte	0x1719
 1267 068c FF000000 		.4byte	0xff
 1268 0690 1801     		.2byte	0x118
 1269 0692 0A       		.uleb128 0xa
 1270 0693 40090000 		.4byte	.LASF118
 1271 0697 05       		.byte	0x5
 1272 0698 1A17     		.2byte	0x171a
 1273 069a FF000000 		.4byte	0xff
 1274 069e 1C01     		.2byte	0x11c
 1275 06a0 0A       		.uleb128 0xa
 1276 06a1 D1000000 		.4byte	.LASF119
 1277 06a5 05       		.byte	0x5
 1278 06a6 1B17     		.2byte	0x171b
 1279 06a8 F4000000 		.4byte	0xf4
 1280 06ac 2001     		.2byte	0x120
 1281 06ae 0A       		.uleb128 0xa
 1282 06af 87060000 		.4byte	.LASF120
 1283 06b3 05       		.byte	0x5
 1284 06b4 1C17     		.2byte	0x171c
 1285 06b6 E4000000 		.4byte	0xe4
 1286 06ba 2401     		.2byte	0x124
 1287 06bc 00       		.byte	0
 1288 06bd 06       		.uleb128 0x6
 1289 06be 7F000000 		.4byte	0x7f
 1290 06c2 CD060000 		.4byte	0x6cd
 1291 06c6 07       		.uleb128 0x7
 1292 06c7 0A010000 		.4byte	0x10a
 1293 06cb 36       		.byte	0x36
 1294 06cc 00       		.byte	0
 1295 06cd 05       		.uleb128 0x5
 1296 06ce BD060000 		.4byte	0x6bd
ARM GAS  /tmp/ccNrqTVO.s 			page 24


 1297 06d2 0C       		.uleb128 0xc
 1298 06d3 5B030000 		.4byte	.LASF121
 1299 06d7 05       		.byte	0x5
 1300 06d8 1D17     		.2byte	0x171d
 1301 06da A0050000 		.4byte	0x5a0
 1302 06de 03       		.uleb128 0x3
 1303 06df 13000000 		.4byte	.LASF122
 1304 06e3 06       		.byte	0x6
 1305 06e4 D4       		.byte	0xd4
 1306 06e5 9B000000 		.4byte	0x9b
 1307 06e9 03       		.uleb128 0x3
 1308 06ea A2080000 		.4byte	.LASF123
 1309 06ee 07       		.byte	0x7
 1310 06ef 2E       		.byte	0x2e
 1311 06f0 C3000000 		.4byte	0xc3
 1312 06f4 03       		.uleb128 0x3
 1313 06f5 74050000 		.4byte	.LASF124
 1314 06f9 07       		.byte	0x7
 1315 06fa 2F       		.byte	0x2f
 1316 06fb A2000000 		.4byte	0xa2
 1317 06ff 03       		.uleb128 0x3
 1318 0700 81010000 		.4byte	.LASF125
 1319 0704 07       		.byte	0x7
 1320 0705 30       		.byte	0x30
 1321 0706 A2000000 		.4byte	0xa2
 1322 070a 03       		.uleb128 0x3
 1323 070b D1080000 		.4byte	.LASF126
 1324 070f 07       		.byte	0x7
 1325 0710 31       		.byte	0x31
 1326 0711 A2000000 		.4byte	0xa2
 1327 0715 03       		.uleb128 0x3
 1328 0716 3A000000 		.4byte	.LASF127
 1329 071a 07       		.byte	0x7
 1330 071b 32       		.byte	0x32
 1331 071c CE000000 		.4byte	0xce
 1332 0720 03       		.uleb128 0x3
 1333 0721 2C070000 		.4byte	.LASF128
 1334 0725 07       		.byte	0x7
 1335 0726 33       		.byte	0x33
 1336 0727 C3000000 		.4byte	0xc3
 1337 072b 03       		.uleb128 0x3
 1338 072c F1010000 		.4byte	.LASF129
 1339 0730 07       		.byte	0x7
 1340 0731 35       		.byte	0x35
 1341 0732 CE000000 		.4byte	0xce
 1342 0736 03       		.uleb128 0x3
 1343 0737 23000000 		.4byte	.LASF130
 1344 073b 07       		.byte	0x7
 1345 073c 36       		.byte	0x36
 1346 073d CE000000 		.4byte	0xce
 1347 0741 03       		.uleb128 0x3
 1348 0742 A9080000 		.4byte	.LASF131
 1349 0746 08       		.byte	0x8
 1350 0747 2A       		.byte	0x2a
 1351 0748 4C070000 		.4byte	0x74c
 1352 074c 0D       		.uleb128 0xd
 1353 074d A9080000 		.4byte	.LASF131
ARM GAS  /tmp/ccNrqTVO.s 			page 25


 1354 0751 48       		.byte	0x48
 1355 0752 09       		.byte	0x9
 1356 0753 5E       		.byte	0x5e
 1357 0754 72080000 		.4byte	0x872
 1358 0758 0E       		.uleb128 0xe
 1359 0759 04       		.byte	0x4
 1360 075a 09       		.byte	0x9
 1361 075b 90       		.byte	0x90
 1362 075c 8D070000 		.4byte	0x78d
 1363 0760 0F       		.uleb128 0xf
 1364 0761 55090000 		.4byte	.LASF132
 1365 0765 09       		.byte	0x9
 1366 0766 97       		.byte	0x97
 1367 0767 20070000 		.4byte	0x720
 1368 076b 0F       		.uleb128 0xf
 1369 076c E4000000 		.4byte	.LASF133
 1370 0770 09       		.byte	0x9
 1371 0771 9E       		.byte	0x9e
 1372 0772 20070000 		.4byte	0x720
 1373 0776 0F       		.uleb128 0xf
 1374 0777 D6020000 		.4byte	.LASF134
 1375 077b 09       		.byte	0x9
 1376 077c A5       		.byte	0xa5
 1377 077d D7080000 		.4byte	0x8d7
 1378 0781 0F       		.uleb128 0xf
 1379 0782 E2010000 		.4byte	.LASF135
 1380 0786 09       		.byte	0x9
 1381 0787 AC       		.byte	0xac
 1382 0788 2B070000 		.4byte	0x72b
 1383 078c 00       		.byte	0
 1384 078d 10       		.uleb128 0x10
 1385 078e 4E010000 		.4byte	.LASF136
 1386 0792 09       		.byte	0x9
 1387 0793 5F       		.byte	0x5f
 1388 0794 280A0000 		.4byte	0xa28
 1389 0798 00       		.byte	0
 1390 0799 10       		.uleb128 0x10
 1391 079a 5D010000 		.4byte	.LASF137
 1392 079e 09       		.byte	0x9
 1393 079f 61       		.byte	0x61
 1394 07a0 280A0000 		.4byte	0xa28
 1395 07a4 04       		.byte	0x4
 1396 07a5 10       		.uleb128 0x10
 1397 07a6 AE020000 		.4byte	.LASF138
 1398 07aa 09       		.byte	0x9
 1399 07ab 63       		.byte	0x63
 1400 07ac 15070000 		.4byte	0x715
 1401 07b0 08       		.byte	0x8
 1402 07b1 10       		.uleb128 0x10
 1403 07b2 34000000 		.4byte	.LASF139
 1404 07b6 09       		.byte	0x9
 1405 07b7 64       		.byte	0x64
 1406 07b8 54090000 		.4byte	0x954
 1407 07bc 0C       		.byte	0xc
 1408 07bd 10       		.uleb128 0x10
 1409 07be 3D010000 		.4byte	.LASF140
 1410 07c2 09       		.byte	0x9
ARM GAS  /tmp/ccNrqTVO.s 			page 26


 1411 07c3 66       		.byte	0x66
 1412 07c4 280A0000 		.4byte	0xa28
 1413 07c8 10       		.byte	0x10
 1414 07c9 10       		.uleb128 0x10
 1415 07ca 0B070000 		.4byte	.LASF141
 1416 07ce 09       		.byte	0x9
 1417 07cf 67       		.byte	0x67
 1418 07d0 280A0000 		.4byte	0xa28
 1419 07d4 14       		.byte	0x14
 1420 07d5 10       		.uleb128 0x10
 1421 07d6 C7090000 		.4byte	.LASF142
 1422 07da 09       		.byte	0x9
 1423 07db 6E       		.byte	0x6e
 1424 07dc 2E0A0000 		.4byte	0xa2e
 1425 07e0 18       		.byte	0x18
 1426 07e1 10       		.uleb128 0x10
 1427 07e2 170A0000 		.4byte	.LASF143
 1428 07e6 09       		.byte	0x9
 1429 07e7 79       		.byte	0x79
 1430 07e8 FF060000 		.4byte	0x6ff
 1431 07ec 1C       		.byte	0x1c
 1432 07ed 10       		.uleb128 0x10
 1433 07ee E3050000 		.4byte	.LASF144
 1434 07f2 09       		.byte	0x9
 1435 07f3 7D       		.byte	0x7d
 1436 07f4 F4060000 		.4byte	0x6f4
 1437 07f8 1D       		.byte	0x1d
 1438 07f9 10       		.uleb128 0x10
 1439 07fa 14060000 		.4byte	.LASF145
 1440 07fe 09       		.byte	0x9
 1441 07ff 82       		.byte	0x82
 1442 0800 0A070000 		.4byte	0x70a
 1443 0804 1E       		.byte	0x1e
 1444 0805 10       		.uleb128 0x10
 1445 0806 2D000000 		.4byte	.LASF146
 1446 080a 09       		.byte	0x9
 1447 080b 89       		.byte	0x89
 1448 080c 75090000 		.4byte	0x975
 1449 0810 20       		.byte	0x20
 1450 0811 11       		.uleb128 0x11
 1451 0812 705F7500 		.ascii	"p_u\000"
 1452 0816 09       		.byte	0x9
 1453 0817 AE       		.byte	0xae
 1454 0818 58070000 		.4byte	0x758
 1455 081c 24       		.byte	0x24
 1456 081d 10       		.uleb128 0x10
 1457 081e 37020000 		.4byte	.LASF147
 1458 0822 09       		.byte	0x9
 1459 0823 B3       		.byte	0xb3
 1460 0824 C1080000 		.4byte	0x8c1
 1461 0828 28       		.byte	0x28
 1462 0829 10       		.uleb128 0x10
 1463 082a 42000000 		.4byte	.LASF148
 1464 082e 09       		.byte	0x9
 1465 082f B9       		.byte	0xb9
 1466 0830 9D080000 		.4byte	0x89d
 1467 0834 2C       		.byte	0x2c
ARM GAS  /tmp/ccNrqTVO.s 			page 27


 1468 0835 10       		.uleb128 0x10
 1469 0836 FC090000 		.4byte	.LASF149
 1470 083a 09       		.byte	0x9
 1471 083b BD       		.byte	0xbd
 1472 083c 20070000 		.4byte	0x720
 1473 0840 34       		.byte	0x34
 1474 0841 10       		.uleb128 0x10
 1475 0842 99030000 		.4byte	.LASF150
 1476 0846 09       		.byte	0x9
 1477 0847 C3       		.byte	0xc3
 1478 0848 2B070000 		.4byte	0x72b
 1479 084c 38       		.byte	0x38
 1480 084d 10       		.uleb128 0x10
 1481 084e 8F010000 		.4byte	.LASF151
 1482 0852 09       		.byte	0x9
 1483 0853 CA       		.byte	0xca
 1484 0854 400A0000 		.4byte	0xa40
 1485 0858 3C       		.byte	0x3c
 1486 0859 10       		.uleb128 0x10
 1487 085a AD060000 		.4byte	.LASF152
 1488 085e 09       		.byte	0x9
 1489 085f CE       		.byte	0xce
 1490 0860 15070000 		.4byte	0x715
 1491 0864 40       		.byte	0x40
 1492 0865 10       		.uleb128 0x10
 1493 0866 FD050000 		.4byte	.LASF153
 1494 086a 09       		.byte	0x9
 1495 086b D4       		.byte	0xd4
 1496 086c D7080000 		.4byte	0x8d7
 1497 0870 44       		.byte	0x44
 1498 0871 00       		.byte	0
 1499 0872 12       		.uleb128 0x12
 1500 0873 08       		.byte	0x8
 1501 0874 08       		.byte	0x8
 1502 0875 61       		.byte	0x61
 1503 0876 5D020000 		.4byte	.LASF155
 1504 087a 97080000 		.4byte	0x897
 1505 087e 10       		.uleb128 0x10
 1506 087f 4E010000 		.4byte	.LASF136
 1507 0883 08       		.byte	0x8
 1508 0884 62       		.byte	0x62
 1509 0885 97080000 		.4byte	0x897
 1510 0889 00       		.byte	0
 1511 088a 10       		.uleb128 0x10
 1512 088b 5D010000 		.4byte	.LASF137
 1513 088f 08       		.byte	0x8
 1514 0890 64       		.byte	0x64
 1515 0891 97080000 		.4byte	0x897
 1516 0895 04       		.byte	0x4
 1517 0896 00       		.byte	0
 1518 0897 13       		.uleb128 0x13
 1519 0898 04       		.byte	0x4
 1520 0899 41070000 		.4byte	0x741
 1521 089d 03       		.uleb128 0x3
 1522 089e 25090000 		.4byte	.LASF154
 1523 08a2 08       		.byte	0x8
 1524 08a3 66       		.byte	0x66
ARM GAS  /tmp/ccNrqTVO.s 			page 28


 1525 08a4 72080000 		.4byte	0x872
 1526 08a8 12       		.uleb128 0x12
 1527 08a9 04       		.byte	0x4
 1528 08aa 08       		.byte	0x8
 1529 08ab 6B       		.byte	0x6b
 1530 08ac 94090000 		.4byte	.LASF156
 1531 08b0 C1080000 		.4byte	0x8c1
 1532 08b4 10       		.uleb128 0x10
 1533 08b5 4E010000 		.4byte	.LASF136
 1534 08b9 08       		.byte	0x8
 1535 08ba 6D       		.byte	0x6d
 1536 08bb 97080000 		.4byte	0x897
 1537 08bf 00       		.byte	0
 1538 08c0 00       		.byte	0
 1539 08c1 03       		.uleb128 0x3
 1540 08c2 36060000 		.4byte	.LASF157
 1541 08c6 08       		.byte	0x8
 1542 08c7 70       		.byte	0x70
 1543 08c8 A8080000 		.4byte	0x8a8
 1544 08cc 03       		.uleb128 0x3
 1545 08cd A0010000 		.4byte	.LASF158
 1546 08d1 0A       		.byte	0xa
 1547 08d2 D7       		.byte	0xd7
 1548 08d3 D7080000 		.4byte	0x8d7
 1549 08d7 14       		.uleb128 0x14
 1550 08d8 04       		.byte	0x4
 1551 08d9 0D       		.uleb128 0xd
 1552 08da 92030000 		.4byte	.LASF159
 1553 08de 24       		.byte	0x24
 1554 08df 0A       		.byte	0xa
 1555 08e0 FE       		.byte	0xfe
 1556 08e1 54090000 		.4byte	0x954
 1557 08e5 15       		.uleb128 0x15
 1558 08e6 723400   		.ascii	"r4\000"
 1559 08e9 0A       		.byte	0xa
 1560 08ea 1101     		.2byte	0x111
 1561 08ec CC080000 		.4byte	0x8cc
 1562 08f0 00       		.byte	0
 1563 08f1 15       		.uleb128 0x15
 1564 08f2 723500   		.ascii	"r5\000"
 1565 08f5 0A       		.byte	0xa
 1566 08f6 1201     		.2byte	0x112
 1567 08f8 CC080000 		.4byte	0x8cc
 1568 08fc 04       		.byte	0x4
 1569 08fd 15       		.uleb128 0x15
 1570 08fe 723600   		.ascii	"r6\000"
 1571 0901 0A       		.byte	0xa
 1572 0902 1301     		.2byte	0x113
 1573 0904 CC080000 		.4byte	0x8cc
 1574 0908 08       		.byte	0x8
 1575 0909 15       		.uleb128 0x15
 1576 090a 723700   		.ascii	"r7\000"
 1577 090d 0A       		.byte	0xa
 1578 090e 1401     		.2byte	0x114
 1579 0910 CC080000 		.4byte	0x8cc
 1580 0914 0C       		.byte	0xc
 1581 0915 15       		.uleb128 0x15
ARM GAS  /tmp/ccNrqTVO.s 			page 29


 1582 0916 723800   		.ascii	"r8\000"
 1583 0919 0A       		.byte	0xa
 1584 091a 1501     		.2byte	0x115
 1585 091c CC080000 		.4byte	0x8cc
 1586 0920 10       		.byte	0x10
 1587 0921 15       		.uleb128 0x15
 1588 0922 723900   		.ascii	"r9\000"
 1589 0925 0A       		.byte	0xa
 1590 0926 1601     		.2byte	0x116
 1591 0928 CC080000 		.4byte	0x8cc
 1592 092c 14       		.byte	0x14
 1593 092d 15       		.uleb128 0x15
 1594 092e 72313000 		.ascii	"r10\000"
 1595 0932 0A       		.byte	0xa
 1596 0933 1701     		.2byte	0x117
 1597 0935 CC080000 		.4byte	0x8cc
 1598 0939 18       		.byte	0x18
 1599 093a 15       		.uleb128 0x15
 1600 093b 72313100 		.ascii	"r11\000"
 1601 093f 0A       		.byte	0xa
 1602 0940 1801     		.2byte	0x118
 1603 0942 CC080000 		.4byte	0x8cc
 1604 0946 1C       		.byte	0x1c
 1605 0947 15       		.uleb128 0x15
 1606 0948 6C7200   		.ascii	"lr\000"
 1607 094b 0A       		.byte	0xa
 1608 094c 1901     		.2byte	0x119
 1609 094e CC080000 		.4byte	0x8cc
 1610 0952 20       		.byte	0x20
 1611 0953 00       		.byte	0
 1612 0954 16       		.uleb128 0x16
 1613 0955 FD010000 		.4byte	.LASF160
 1614 0959 04       		.byte	0x4
 1615 095a 0A       		.byte	0xa
 1616 095b 2301     		.2byte	0x123
 1617 095d 6F090000 		.4byte	0x96f
 1618 0961 15       		.uleb128 0x15
 1619 0962 72313300 		.ascii	"r13\000"
 1620 0966 0A       		.byte	0xa
 1621 0967 2401     		.2byte	0x124
 1622 0969 6F090000 		.4byte	0x96f
 1623 096d 00       		.byte	0
 1624 096e 00       		.byte	0
 1625 096f 13       		.uleb128 0x13
 1626 0970 04       		.byte	0x4
 1627 0971 D9080000 		.4byte	0x8d9
 1628 0975 05       		.uleb128 0x5
 1629 0976 36070000 		.4byte	0x736
 1630 097a 0D       		.uleb128 0xd
 1631 097b 4D050000 		.4byte	.LASF161
 1632 097f 10       		.byte	0x10
 1633 0980 0B       		.byte	0xb
 1634 0981 2C       		.byte	0x2c
 1635 0982 AB090000 		.4byte	0x9ab
 1636 0986 10       		.uleb128 0x10
 1637 0987 6C050000 		.4byte	.LASF162
 1638 098b 0B       		.byte	0xb
ARM GAS  /tmp/ccNrqTVO.s 			page 30


 1639 098c 2D       		.byte	0x2d
 1640 098d 9D080000 		.4byte	0x89d
 1641 0991 00       		.byte	0
 1642 0992 10       		.uleb128 0x10
 1643 0993 44070000 		.4byte	.LASF163
 1644 0997 0B       		.byte	0xb
 1645 0998 2F       		.byte	0x2f
 1646 0999 97080000 		.4byte	0x897
 1647 099d 08       		.byte	0x8
 1648 099e 10       		.uleb128 0x10
 1649 099f CE090000 		.4byte	.LASF164
 1650 09a3 0B       		.byte	0xb
 1651 09a4 31       		.byte	0x31
 1652 09a5 AB090000 		.4byte	0x9ab
 1653 09a9 0C       		.byte	0xc
 1654 09aa 00       		.byte	0
 1655 09ab 13       		.uleb128 0x13
 1656 09ac 04       		.byte	0x4
 1657 09ad 7A090000 		.4byte	0x97a
 1658 09b1 03       		.uleb128 0x3
 1659 09b2 4D050000 		.4byte	.LASF161
 1660 09b6 0B       		.byte	0xb
 1661 09b7 33       		.byte	0x33
 1662 09b8 7A090000 		.4byte	0x97a
 1663 09bc 03       		.uleb128 0x3
 1664 09bd D9080000 		.4byte	.LASF165
 1665 09c1 0C       		.byte	0xc
 1666 09c2 29       		.byte	0x29
 1667 09c3 C7090000 		.4byte	0x9c7
 1668 09c7 0D       		.uleb128 0xd
 1669 09c8 D9080000 		.4byte	.LASF165
 1670 09cc 0C       		.byte	0xc
 1671 09cd 0C       		.byte	0xc
 1672 09ce 2E       		.byte	0x2e
 1673 09cf F8090000 		.4byte	0x9f8
 1674 09d3 10       		.uleb128 0x10
 1675 09d4 DA040000 		.4byte	.LASF166
 1676 09d8 0C       		.byte	0xc
 1677 09d9 2F       		.byte	0x2f
 1678 09da F8090000 		.4byte	0x9f8
 1679 09de 00       		.byte	0
 1680 09df 10       		.uleb128 0x10
 1681 09e0 020A0000 		.4byte	.LASF167
 1682 09e4 0C       		.byte	0xc
 1683 09e5 32       		.byte	0x32
 1684 09e6 97080000 		.4byte	0x897
 1685 09ea 04       		.byte	0x4
 1686 09eb 10       		.uleb128 0x10
 1687 09ec B1090000 		.4byte	.LASF168
 1688 09f0 0C       		.byte	0xc
 1689 09f1 34       		.byte	0x34
 1690 09f2 2B070000 		.4byte	0x72b
 1691 09f6 08       		.byte	0x8
 1692 09f7 00       		.byte	0
 1693 09f8 13       		.uleb128 0x13
 1694 09f9 04       		.byte	0x4
 1695 09fa C7090000 		.4byte	0x9c7
ARM GAS  /tmp/ccNrqTVO.s 			page 31


 1696 09fe 0D       		.uleb128 0xd
 1697 09ff BC040000 		.4byte	.LASF169
 1698 0a03 04       		.byte	0x4
 1699 0a04 0C       		.byte	0xc
 1700 0a05 3C       		.byte	0x3c
 1701 0a06 170A0000 		.4byte	0xa17
 1702 0a0a 10       		.uleb128 0x10
 1703 0a0b C4030000 		.4byte	.LASF170
 1704 0a0f 0C       		.byte	0xc
 1705 0a10 3D       		.byte	0x3d
 1706 0a11 170A0000 		.4byte	0xa17
 1707 0a15 00       		.byte	0
 1708 0a16 00       		.byte	0
 1709 0a17 13       		.uleb128 0x13
 1710 0a18 04       		.byte	0x4
 1711 0a19 BC090000 		.4byte	0x9bc
 1712 0a1d 03       		.uleb128 0x3
 1713 0a1e BC040000 		.4byte	.LASF169
 1714 0a22 0C       		.byte	0xc
 1715 0a23 40       		.byte	0x40
 1716 0a24 FE090000 		.4byte	0x9fe
 1717 0a28 13       		.uleb128 0x13
 1718 0a29 04       		.byte	0x4
 1719 0a2a 4C070000 		.4byte	0x74c
 1720 0a2e 13       		.uleb128 0x13
 1721 0a2f 04       		.byte	0x4
 1722 0a30 340A0000 		.4byte	0xa34
 1723 0a34 17       		.uleb128 0x17
 1724 0a35 390A0000 		.4byte	0xa39
 1725 0a39 02       		.uleb128 0x2
 1726 0a3a 01       		.byte	0x1
 1727 0a3b 08       		.byte	0x8
 1728 0a3c 75020000 		.4byte	.LASF171
 1729 0a40 13       		.uleb128 0x13
 1730 0a41 04       		.byte	0x4
 1731 0a42 B1090000 		.4byte	0x9b1
 1732 0a46 03       		.uleb128 0x3
 1733 0a47 AF050000 		.4byte	.LASF172
 1734 0a4b 09       		.byte	0x9
 1735 0a4c DF       		.byte	0xdf
 1736 0a4d 510A0000 		.4byte	0xa51
 1737 0a51 13       		.uleb128 0x13
 1738 0a52 04       		.byte	0x4
 1739 0a53 570A0000 		.4byte	0xa57
 1740 0a57 18       		.uleb128 0x18
 1741 0a58 20070000 		.4byte	0x720
 1742 0a5c 660A0000 		.4byte	0xa66
 1743 0a60 19       		.uleb128 0x19
 1744 0a61 D7080000 		.4byte	0x8d7
 1745 0a65 00       		.byte	0
 1746 0a66 03       		.uleb128 0x3
 1747 0a67 C0020000 		.4byte	.LASF173
 1748 0a6b 0D       		.byte	0xd
 1749 0a6c 37       		.byte	0x37
 1750 0a6d 710A0000 		.4byte	0xa71
 1751 0a71 0D       		.uleb128 0xd
 1752 0a72 C0020000 		.4byte	.LASF173
ARM GAS  /tmp/ccNrqTVO.s 			page 32


 1753 0a76 20       		.byte	0x20
 1754 0a77 0D       		.byte	0xd
 1755 0a78 45       		.byte	0x45
 1756 0a79 D20A0000 		.4byte	0xad2
 1757 0a7d 10       		.uleb128 0x10
 1758 0a7e 90070000 		.4byte	.LASF174
 1759 0a82 0D       		.byte	0xd
 1760 0a83 46       		.byte	0x46
 1761 0a84 9D080000 		.4byte	0x89d
 1762 0a88 00       		.byte	0
 1763 0a89 10       		.uleb128 0x10
 1764 0a8a CC030000 		.4byte	.LASF175
 1765 0a8e 0D       		.byte	0xd
 1766 0a8f 47       		.byte	0x47
 1767 0a90 DE060000 		.4byte	0x6de
 1768 0a94 08       		.byte	0x8
 1769 0a95 10       		.uleb128 0x10
 1770 0a96 21010000 		.4byte	.LASF176
 1771 0a9a 0D       		.byte	0xd
 1772 0a9b 48       		.byte	0x48
 1773 0a9c F40A0000 		.4byte	0xaf4
 1774 0aa0 0C       		.byte	0xc
 1775 0aa1 10       		.uleb128 0x10
 1776 0aa2 F7000000 		.4byte	.LASF177
 1777 0aa6 0D       		.byte	0xd
 1778 0aa7 49       		.byte	0x49
 1779 0aa8 F40A0000 		.4byte	0xaf4
 1780 0aac 10       		.byte	0x10
 1781 0aad 10       		.uleb128 0x10
 1782 0aae E7040000 		.4byte	.LASF178
 1783 0ab2 0D       		.byte	0xd
 1784 0ab3 4B       		.byte	0x4b
 1785 0ab4 F40A0000 		.4byte	0xaf4
 1786 0ab8 14       		.byte	0x14
 1787 0ab9 10       		.uleb128 0x10
 1788 0aba 55010000 		.4byte	.LASF179
 1789 0abe 0D       		.byte	0xd
 1790 0abf 4C       		.byte	0x4c
 1791 0ac0 F40A0000 		.4byte	0xaf4
 1792 0ac4 18       		.byte	0x18
 1793 0ac5 10       		.uleb128 0x10
 1794 0ac6 2A010000 		.4byte	.LASF180
 1795 0aca 0D       		.byte	0xd
 1796 0acb 4D       		.byte	0x4d
 1797 0acc D20A0000 		.4byte	0xad2
 1798 0ad0 1C       		.byte	0x1c
 1799 0ad1 00       		.byte	0
 1800 0ad2 03       		.uleb128 0x3
 1801 0ad3 CB050000 		.4byte	.LASF181
 1802 0ad7 0D       		.byte	0xd
 1803 0ad8 3A       		.byte	0x3a
 1804 0ad9 DD0A0000 		.4byte	0xadd
 1805 0add 13       		.uleb128 0x13
 1806 0ade 04       		.byte	0x4
 1807 0adf E30A0000 		.4byte	0xae3
 1808 0ae3 1A       		.uleb128 0x1a
 1809 0ae4 EE0A0000 		.4byte	0xaee
ARM GAS  /tmp/ccNrqTVO.s 			page 33


 1810 0ae8 19       		.uleb128 0x19
 1811 0ae9 EE0A0000 		.4byte	0xaee
 1812 0aed 00       		.byte	0
 1813 0aee 13       		.uleb128 0x13
 1814 0aef 04       		.byte	0x4
 1815 0af0 660A0000 		.4byte	0xa66
 1816 0af4 13       		.uleb128 0x13
 1817 0af5 04       		.byte	0x4
 1818 0af6 A2000000 		.4byte	0xa2
 1819 0afa 03       		.uleb128 0x3
 1820 0afb 77090000 		.4byte	.LASF182
 1821 0aff 0D       		.byte	0xd
 1822 0b00 76       		.byte	0x76
 1823 0b01 660A0000 		.4byte	0xa66
 1824 0b05 03       		.uleb128 0x3
 1825 0b06 F7020000 		.4byte	.LASF183
 1826 0b0a 0D       		.byte	0xd
 1827 0b0b E6       		.byte	0xe6
 1828 0b0c 660A0000 		.4byte	0xa66
 1829 0b10 18       		.uleb128 0x18
 1830 0b11 DE060000 		.4byte	0x6de
 1831 0b15 290B0000 		.4byte	0xb29
 1832 0b19 19       		.uleb128 0x19
 1833 0b1a D7080000 		.4byte	0x8d7
 1834 0b1e 19       		.uleb128 0x19
 1835 0b1f 290B0000 		.4byte	0xb29
 1836 0b23 19       		.uleb128 0x19
 1837 0b24 DE060000 		.4byte	0x6de
 1838 0b28 00       		.byte	0
 1839 0b29 13       		.uleb128 0x13
 1840 0b2a 04       		.byte	0x4
 1841 0b2b 2F0B0000 		.4byte	0xb2f
 1842 0b2f 17       		.uleb128 0x17
 1843 0b30 A2000000 		.4byte	0xa2
 1844 0b34 13       		.uleb128 0x13
 1845 0b35 04       		.byte	0x4
 1846 0b36 100B0000 		.4byte	0xb10
 1847 0b3a 18       		.uleb128 0x18
 1848 0b3b DE060000 		.4byte	0x6de
 1849 0b3f 530B0000 		.4byte	0xb53
 1850 0b43 19       		.uleb128 0x19
 1851 0b44 D7080000 		.4byte	0x8d7
 1852 0b48 19       		.uleb128 0x19
 1853 0b49 F40A0000 		.4byte	0xaf4
 1854 0b4d 19       		.uleb128 0x19
 1855 0b4e DE060000 		.4byte	0x6de
 1856 0b52 00       		.byte	0
 1857 0b53 13       		.uleb128 0x13
 1858 0b54 04       		.byte	0x4
 1859 0b55 3A0B0000 		.4byte	0xb3a
 1860 0b59 0D       		.uleb128 0xd
 1861 0b5a A2090000 		.4byte	.LASF184
 1862 0b5e 20       		.byte	0x20
 1863 0b5f 0E       		.byte	0xe
 1864 0b60 51       		.byte	0x51
 1865 0b61 C60B0000 		.4byte	0xbc6
 1866 0b65 10       		.uleb128 0x10
ARM GAS  /tmp/ccNrqTVO.s 			page 34


 1867 0b66 8B000000 		.4byte	.LASF185
 1868 0b6a 0E       		.byte	0xe
 1869 0b6b 52       		.byte	0x52
 1870 0b6c 340B0000 		.4byte	0xb34
 1871 0b70 00       		.byte	0
 1872 0b71 10       		.uleb128 0x10
 1873 0b72 EB050000 		.4byte	.LASF186
 1874 0b76 0E       		.byte	0xe
 1875 0b77 52       		.byte	0x52
 1876 0b78 530B0000 		.4byte	0xb53
 1877 0b7c 04       		.byte	0x4
 1878 0b7d 10       		.uleb128 0x10
 1879 0b7e 1F030000 		.4byte	.LASF187
 1880 0b82 0E       		.byte	0xe
 1881 0b83 52       		.byte	0x52
 1882 0b84 D50B0000 		.4byte	0xbd5
 1883 0b88 08       		.byte	0x8
 1884 0b89 10       		.uleb128 0x10
 1885 0b8a B8060000 		.4byte	.LASF188
 1886 0b8e 0E       		.byte	0xe
 1887 0b8f 52       		.byte	0x52
 1888 0b90 D50B0000 		.4byte	0xbd5
 1889 0b94 0C       		.byte	0xc
 1890 0b95 11       		.uleb128 0x11
 1891 0b96 70757400 		.ascii	"put\000"
 1892 0b9a 0E       		.byte	0xe
 1893 0b9b 52       		.byte	0x52
 1894 0b9c F40B0000 		.4byte	0xbf4
 1895 0ba0 10       		.byte	0x10
 1896 0ba1 11       		.uleb128 0x11
 1897 0ba2 67657400 		.ascii	"get\000"
 1898 0ba6 0E       		.byte	0xe
 1899 0ba7 52       		.byte	0x52
 1900 0ba8 0E0C0000 		.4byte	0xc0e
 1901 0bac 14       		.byte	0x14
 1902 0bad 10       		.uleb128 0x10
 1903 0bae 62000000 		.4byte	.LASF189
 1904 0bb2 0E       		.byte	0xe
 1905 0bb3 52       		.byte	0x52
 1906 0bb4 320C0000 		.4byte	0xc32
 1907 0bb8 18       		.byte	0x18
 1908 0bb9 10       		.uleb128 0x10
 1909 0bba 06010000 		.4byte	.LASF190
 1910 0bbe 0E       		.byte	0xe
 1911 0bbf 52       		.byte	0x52
 1912 0bc0 560C0000 		.4byte	0xc56
 1913 0bc4 1C       		.byte	0x1c
 1914 0bc5 00       		.byte	0
 1915 0bc6 18       		.uleb128 0x18
 1916 0bc7 E9060000 		.4byte	0x6e9
 1917 0bcb D50B0000 		.4byte	0xbd5
 1918 0bcf 19       		.uleb128 0x19
 1919 0bd0 D7080000 		.4byte	0x8d7
 1920 0bd4 00       		.byte	0
 1921 0bd5 13       		.uleb128 0x13
 1922 0bd6 04       		.byte	0x4
 1923 0bd7 C60B0000 		.4byte	0xbc6
ARM GAS  /tmp/ccNrqTVO.s 			page 35


 1924 0bdb 18       		.uleb128 0x18
 1925 0bdc 20070000 		.4byte	0x720
 1926 0be0 F40B0000 		.4byte	0xbf4
 1927 0be4 19       		.uleb128 0x19
 1928 0be5 D7080000 		.4byte	0x8d7
 1929 0be9 19       		.uleb128 0x19
 1930 0bea A2000000 		.4byte	0xa2
 1931 0bee 19       		.uleb128 0x19
 1932 0bef 36070000 		.4byte	0x736
 1933 0bf3 00       		.byte	0
 1934 0bf4 13       		.uleb128 0x13
 1935 0bf5 04       		.byte	0x4
 1936 0bf6 DB0B0000 		.4byte	0xbdb
 1937 0bfa 18       		.uleb128 0x18
 1938 0bfb 20070000 		.4byte	0x720
 1939 0bff 0E0C0000 		.4byte	0xc0e
 1940 0c03 19       		.uleb128 0x19
 1941 0c04 D7080000 		.4byte	0x8d7
 1942 0c08 19       		.uleb128 0x19
 1943 0c09 36070000 		.4byte	0x736
 1944 0c0d 00       		.byte	0
 1945 0c0e 13       		.uleb128 0x13
 1946 0c0f 04       		.byte	0x4
 1947 0c10 FA0B0000 		.4byte	0xbfa
 1948 0c14 18       		.uleb128 0x18
 1949 0c15 DE060000 		.4byte	0x6de
 1950 0c19 320C0000 		.4byte	0xc32
 1951 0c1d 19       		.uleb128 0x19
 1952 0c1e D7080000 		.4byte	0x8d7
 1953 0c22 19       		.uleb128 0x19
 1954 0c23 290B0000 		.4byte	0xb29
 1955 0c27 19       		.uleb128 0x19
 1956 0c28 DE060000 		.4byte	0x6de
 1957 0c2c 19       		.uleb128 0x19
 1958 0c2d 36070000 		.4byte	0x736
 1959 0c31 00       		.byte	0
 1960 0c32 13       		.uleb128 0x13
 1961 0c33 04       		.byte	0x4
 1962 0c34 140C0000 		.4byte	0xc14
 1963 0c38 18       		.uleb128 0x18
 1964 0c39 DE060000 		.4byte	0x6de
 1965 0c3d 560C0000 		.4byte	0xc56
 1966 0c41 19       		.uleb128 0x19
 1967 0c42 D7080000 		.4byte	0x8d7
 1968 0c46 19       		.uleb128 0x19
 1969 0c47 F40A0000 		.4byte	0xaf4
 1970 0c4b 19       		.uleb128 0x19
 1971 0c4c DE060000 		.4byte	0x6de
 1972 0c50 19       		.uleb128 0x19
 1973 0c51 36070000 		.4byte	0x736
 1974 0c55 00       		.byte	0
 1975 0c56 13       		.uleb128 0x13
 1976 0c57 04       		.byte	0x4
 1977 0c58 380C0000 		.4byte	0xc38
 1978 0c5c 12       		.uleb128 0x12
 1979 0c5d 04       		.byte	0x4
 1980 0c5e 0E       		.byte	0xe
ARM GAS  /tmp/ccNrqTVO.s 			page 36


 1981 0c5f 5C       		.byte	0x5c
 1982 0c60 44030000 		.4byte	.LASF191
 1983 0c64 750C0000 		.4byte	0xc75
 1984 0c68 11       		.uleb128 0x11
 1985 0c69 766D7400 		.ascii	"vmt\000"
 1986 0c6d 0E       		.byte	0xe
 1987 0c6e 5E       		.byte	0x5e
 1988 0c6f 750C0000 		.4byte	0xc75
 1989 0c73 00       		.byte	0
 1990 0c74 00       		.byte	0
 1991 0c75 13       		.uleb128 0x13
 1992 0c76 04       		.byte	0x4
 1993 0c77 7B0C0000 		.4byte	0xc7b
 1994 0c7b 17       		.uleb128 0x17
 1995 0c7c 590B0000 		.4byte	0xb59
 1996 0c80 03       		.uleb128 0x3
 1997 0c81 D5090000 		.4byte	.LASF192
 1998 0c85 0E       		.byte	0xe
 1999 0c86 60       		.byte	0x60
 2000 0c87 5C0C0000 		.4byte	0xc5c
 2001 0c8b 0C       		.uleb128 0xc
 2002 0c8c 6A060000 		.4byte	.LASF193
 2003 0c90 0E       		.byte	0xe
 2004 0c91 0B01     		.2byte	0x10b
 2005 0c93 D9000000 		.4byte	0xd9
 2006 0c97 18       		.uleb128 0x18
 2007 0c98 8B0C0000 		.4byte	0xc8b
 2008 0c9c A60C0000 		.4byte	0xca6
 2009 0ca0 19       		.uleb128 0x19
 2010 0ca1 D7080000 		.4byte	0x8d7
 2011 0ca5 00       		.byte	0
 2012 0ca6 13       		.uleb128 0x13
 2013 0ca7 04       		.byte	0x4
 2014 0ca8 970C0000 		.4byte	0xc97
 2015 0cac 03       		.uleb128 0x3
 2016 0cad 2D030000 		.4byte	.LASF194
 2017 0cb1 0F       		.byte	0xf
 2018 0cb2 5D       		.byte	0x5d
 2019 0cb3 CE000000 		.4byte	0xce
 2020 0cb7 1B       		.uleb128 0x1b
 2021 0cb8 01       		.byte	0x1
 2022 0cb9 10       		.byte	0x10
 2023 0cba 64       		.byte	0x64
 2024 0cbb 53050000 		.4byte	.LASF237
 2025 0cbf D60C0000 		.4byte	0xcd6
 2026 0cc3 1C       		.uleb128 0x1c
 2027 0cc4 41020000 		.4byte	.LASF195
 2028 0cc8 00       		.sleb128 0
 2029 0cc9 1C       		.uleb128 0x1c
 2030 0cca 8C090000 		.4byte	.LASF196
 2031 0cce 01       		.sleb128 1
 2032 0ccf 1C       		.uleb128 0x1c
 2033 0cd0 19080000 		.4byte	.LASF197
 2034 0cd4 02       		.sleb128 2
 2035 0cd5 00       		.byte	0
 2036 0cd6 03       		.uleb128 0x3
 2037 0cd7 FE070000 		.4byte	.LASF198
ARM GAS  /tmp/ccNrqTVO.s 			page 37


 2038 0cdb 10       		.byte	0x10
 2039 0cdc 68       		.byte	0x68
 2040 0cdd B70C0000 		.4byte	0xcb7
 2041 0ce1 03       		.uleb128 0x3
 2042 0ce2 6E070000 		.4byte	.LASF199
 2043 0ce6 10       		.byte	0x10
 2044 0ce7 6D       		.byte	0x6d
 2045 0ce8 EC0C0000 		.4byte	0xcec
 2046 0cec 0D       		.uleb128 0xd
 2047 0ced 6E070000 		.4byte	.LASF199
 2048 0cf1 74       		.byte	0x74
 2049 0cf2 10       		.byte	0x10
 2050 0cf3 87       		.byte	0x87
 2051 0cf4 630D0000 		.4byte	0xd63
 2052 0cf8 11       		.uleb128 0x11
 2053 0cf9 766D7400 		.ascii	"vmt\000"
 2054 0cfd 10       		.byte	0x10
 2055 0cfe 89       		.byte	0x89
 2056 0cff 0C0E0000 		.4byte	0xe0c
 2057 0d03 00       		.byte	0
 2058 0d04 10       		.uleb128 0x10
 2059 0d05 DD050000 		.4byte	.LASF200
 2060 0d09 10       		.byte	0x10
 2061 0d0a 8A       		.byte	0x8a
 2062 0d0b 1D0A0000 		.4byte	0xa1d
 2063 0d0f 04       		.byte	0x4
 2064 0d10 10       		.uleb128 0x10
 2065 0d11 E6020000 		.4byte	.LASF201
 2066 0d15 10       		.byte	0x10
 2067 0d16 8A       		.byte	0x8a
 2068 0d17 8B0C0000 		.4byte	0xc8b
 2069 0d1b 08       		.byte	0x8
 2070 0d1c 10       		.uleb128 0x10
 2071 0d1d 9C080000 		.4byte	.LASF202
 2072 0d21 10       		.byte	0x10
 2073 0d22 8A       		.byte	0x8a
 2074 0d23 D60C0000 		.4byte	0xcd6
 2075 0d27 0C       		.byte	0xc
 2076 0d28 10       		.uleb128 0x10
 2077 0d29 D8060000 		.4byte	.LASF203
 2078 0d2d 10       		.byte	0x10
 2079 0d2e 8A       		.byte	0x8a
 2080 0d2f FA0A0000 		.4byte	0xafa
 2081 0d33 10       		.byte	0x10
 2082 0d34 10       		.uleb128 0x10
 2083 0d35 99010000 		.4byte	.LASF204
 2084 0d39 10       		.byte	0x10
 2085 0d3a 8A       		.byte	0x8a
 2086 0d3b 050B0000 		.4byte	0xb05
 2087 0d3f 30       		.byte	0x30
 2088 0d40 11       		.uleb128 0x11
 2089 0d41 696200   		.ascii	"ib\000"
 2090 0d44 10       		.byte	0x10
 2091 0d45 8A       		.byte	0x8a
 2092 0d46 170E0000 		.4byte	0xe17
 2093 0d4a 50       		.byte	0x50
 2094 0d4b 11       		.uleb128 0x11
ARM GAS  /tmp/ccNrqTVO.s 			page 38


 2095 0d4c 6F6200   		.ascii	"ob\000"
 2096 0d4f 10       		.byte	0x10
 2097 0d50 8A       		.byte	0x8a
 2098 0d51 170E0000 		.4byte	0xe17
 2099 0d55 60       		.byte	0x60
 2100 0d56 10       		.uleb128 0x10
 2101 0d57 8F080000 		.4byte	.LASF205
 2102 0d5b 10       		.byte	0x10
 2103 0d5c 8A       		.byte	0x8a
 2104 0d5d 270E0000 		.4byte	0xe27
 2105 0d61 70       		.byte	0x70
 2106 0d62 00       		.byte	0
 2107 0d63 12       		.uleb128 0x12
 2108 0d64 08       		.byte	0x8
 2109 0d65 11       		.byte	0x11
 2110 0d66 58       		.byte	0x58
 2111 0d67 A4030000 		.4byte	.LASF206
 2112 0d6b 880D0000 		.4byte	0xd88
 2113 0d6f 10       		.uleb128 0x10
 2114 0d70 2D060000 		.4byte	.LASF207
 2115 0d74 11       		.byte	0x11
 2116 0d75 5D       		.byte	0x5d
 2117 0d76 CE000000 		.4byte	0xce
 2118 0d7a 00       		.byte	0
 2119 0d7b 10       		.uleb128 0x10
 2120 0d7c 98000000 		.4byte	.LASF208
 2121 0d80 11       		.byte	0x11
 2122 0d81 62       		.byte	0x62
 2123 0d82 CE000000 		.4byte	0xce
 2124 0d86 04       		.byte	0x4
 2125 0d87 00       		.byte	0
 2126 0d88 03       		.uleb128 0x3
 2127 0d89 55000000 		.4byte	.LASF209
 2128 0d8d 11       		.byte	0x11
 2129 0d8e 63       		.byte	0x63
 2130 0d8f 630D0000 		.4byte	0xd63
 2131 0d93 0D       		.uleb128 0xd
 2132 0d94 F7040000 		.4byte	.LASF210
 2133 0d98 24       		.byte	0x24
 2134 0d99 10       		.byte	0x10
 2135 0d9a 7C       		.byte	0x7c
 2136 0d9b 0C0E0000 		.4byte	0xe0c
 2137 0d9f 10       		.uleb128 0x10
 2138 0da0 8B000000 		.4byte	.LASF185
 2139 0da4 10       		.byte	0x10
 2140 0da5 7D       		.byte	0x7d
 2141 0da6 340B0000 		.4byte	0xb34
 2142 0daa 00       		.byte	0
 2143 0dab 10       		.uleb128 0x10
 2144 0dac EB050000 		.4byte	.LASF186
 2145 0db0 10       		.byte	0x10
 2146 0db1 7D       		.byte	0x7d
 2147 0db2 530B0000 		.4byte	0xb53
 2148 0db6 04       		.byte	0x4
 2149 0db7 10       		.uleb128 0x10
 2150 0db8 1F030000 		.4byte	.LASF187
 2151 0dbc 10       		.byte	0x10
ARM GAS  /tmp/ccNrqTVO.s 			page 39


 2152 0dbd 7D       		.byte	0x7d
 2153 0dbe D50B0000 		.4byte	0xbd5
 2154 0dc2 08       		.byte	0x8
 2155 0dc3 10       		.uleb128 0x10
 2156 0dc4 B8060000 		.4byte	.LASF188
 2157 0dc8 10       		.byte	0x10
 2158 0dc9 7D       		.byte	0x7d
 2159 0dca D50B0000 		.4byte	0xbd5
 2160 0dce 0C       		.byte	0xc
 2161 0dcf 11       		.uleb128 0x11
 2162 0dd0 70757400 		.ascii	"put\000"
 2163 0dd4 10       		.byte	0x10
 2164 0dd5 7D       		.byte	0x7d
 2165 0dd6 F40B0000 		.4byte	0xbf4
 2166 0dda 10       		.byte	0x10
 2167 0ddb 11       		.uleb128 0x11
 2168 0ddc 67657400 		.ascii	"get\000"
 2169 0de0 10       		.byte	0x10
 2170 0de1 7D       		.byte	0x7d
 2171 0de2 0E0C0000 		.4byte	0xc0e
 2172 0de6 14       		.byte	0x14
 2173 0de7 10       		.uleb128 0x10
 2174 0de8 62000000 		.4byte	.LASF189
 2175 0dec 10       		.byte	0x10
 2176 0ded 7D       		.byte	0x7d
 2177 0dee 320C0000 		.4byte	0xc32
 2178 0df2 18       		.byte	0x18
 2179 0df3 10       		.uleb128 0x10
 2180 0df4 06010000 		.4byte	.LASF190
 2181 0df8 10       		.byte	0x10
 2182 0df9 7D       		.byte	0x7d
 2183 0dfa 560C0000 		.4byte	0xc56
 2184 0dfe 1C       		.byte	0x1c
 2185 0dff 10       		.uleb128 0x10
 2186 0e00 B6080000 		.4byte	.LASF211
 2187 0e04 10       		.byte	0x10
 2188 0e05 7D       		.byte	0x7d
 2189 0e06 A60C0000 		.4byte	0xca6
 2190 0e0a 20       		.byte	0x20
 2191 0e0b 00       		.byte	0
 2192 0e0c 13       		.uleb128 0x13
 2193 0e0d 04       		.byte	0x4
 2194 0e0e 120E0000 		.4byte	0xe12
 2195 0e12 17       		.uleb128 0x17
 2196 0e13 930D0000 		.4byte	0xd93
 2197 0e17 06       		.uleb128 0x6
 2198 0e18 37000000 		.4byte	0x37
 2199 0e1c 270E0000 		.4byte	0xe27
 2200 0e20 07       		.uleb128 0x7
 2201 0e21 0A010000 		.4byte	0x10a
 2202 0e25 0F       		.byte	0xf
 2203 0e26 00       		.byte	0
 2204 0e27 13       		.uleb128 0x13
 2205 0e28 04       		.byte	0x4
 2206 0e29 D2060000 		.4byte	0x6d2
 2207 0e2d 13       		.uleb128 0x13
 2208 0e2e 04       		.byte	0x4
ARM GAS  /tmp/ccNrqTVO.s 			page 40


 2209 0e2f 390A0000 		.4byte	0xa39
 2210 0e33 1D       		.uleb128 0x1d
 2211 0e34 11090000 		.4byte	.LASF219
 2212 0e38 01       		.byte	0x1
 2213 0e39 28       		.byte	0x28
 2214 0e3a 20070000 		.4byte	0x720
 2215 0e3e 00000000 		.4byte	.LFB37
 2216 0e42 8C010000 		.4byte	.LFE37-.LFB37
 2217 0e46 01       		.uleb128 0x1
 2218 0e47 9C       		.byte	0x9c
 2219 0e48 68110000 		.4byte	0x1168
 2220 0e4c 1E       		.uleb128 0x1e
 2221 0e4d 61726700 		.ascii	"arg\000"
 2222 0e51 01       		.byte	0x1
 2223 0e52 28       		.byte	0x28
 2224 0e53 D7080000 		.4byte	0x8d7
 2225 0e57 00000000 		.4byte	.LLST0
 2226 0e5b 1F       		.uleb128 0x1f
 2227 0e5c 00000000 		.4byte	.Ldebug_ranges0+0
 2228 0e60 20       		.uleb128 0x20
 2229 0e61 87030000 		.4byte	.LASF212
 2230 0e65 01       		.byte	0x1
 2231 0e66 2B       		.byte	0x2b
 2232 0e67 68110000 		.4byte	0x1168
 2233 0e6b 03       		.uleb128 0x3
 2234 0e6c 91       		.byte	0x91
 2235 0e6d 947F     		.sleb128 -108
 2236 0e6f 21       		.uleb128 0x21
 2237 0e70 03090000 		.4byte	.LASF213
 2238 0e74 01       		.byte	0x1
 2239 0e75 2C       		.byte	0x2c
 2240 0e76 CE000000 		.4byte	0xce
 2241 0e7a 21000000 		.4byte	.LLST1
 2242 0e7e 22       		.uleb128 0x22
 2243 0e7f A7060000 		.4byte	.LASF238
 2244 0e83 01       		.byte	0x1
 2245 0e84 2D       		.byte	0x2d
 2246 0e85 78110000 		.4byte	0x1178
 2247 0e89 20       		.uleb128 0x20
 2248 0e8a A8000000 		.4byte	.LASF214
 2249 0e8e 01       		.byte	0x1
 2250 0e8f 2E       		.byte	0x2e
 2251 0e90 78110000 		.4byte	0x1178
 2252 0e94 03       		.uleb128 0x3
 2253 0e95 91       		.byte	0x91
 2254 0e96 D47E     		.sleb128 -172
 2255 0e98 20       		.uleb128 0x20
 2256 0e99 9E000000 		.4byte	.LASF215
 2257 0e9d 01       		.byte	0x1
 2258 0e9e 2F       		.byte	0x2f
 2259 0e9f 88110000 		.4byte	0x1188
 2260 0ea3 03       		.uleb128 0x3
 2261 0ea4 91       		.byte	0x91
 2262 0ea5 D07E     		.sleb128 -176
 2263 0ea7 23       		.uleb128 0x23
 2264 0ea8 7800     		.ascii	"x\000"
 2265 0eaa 01       		.byte	0x1
ARM GAS  /tmp/ccNrqTVO.s 			page 41


 2266 0eab 30       		.byte	0x30
 2267 0eac AD000000 		.4byte	0xad
 2268 0eb0 71000000 		.4byte	.LLST2
 2269 0eb4 24       		.uleb128 0x24
 2270 0eb5 06000000 		.4byte	.LBB3
 2271 0eb9 86010000 		.4byte	.LBE3-.LBB3
 2272 0ebd 25       		.uleb128 0x25
 2273 0ebe 6900     		.ascii	"i\000"
 2274 0ec0 01       		.byte	0x1
 2275 0ec1 32       		.byte	0x32
 2276 0ec2 94000000 		.4byte	0x94
 2277 0ec6 00       		.byte	0
 2278 0ec7 23       		.uleb128 0x23
 2279 0ec8 6A00     		.ascii	"j\000"
 2280 0eca 01       		.byte	0x1
 2281 0ecb 33       		.byte	0x33
 2282 0ecc 94000000 		.4byte	0x94
 2283 0ed0 96000000 		.4byte	.LLST3
 2284 0ed4 21       		.uleb128 0x21
 2285 0ed5 BB010000 		.4byte	.LASF216
 2286 0ed9 01       		.byte	0x1
 2287 0eda 34       		.byte	0x34
 2288 0edb 94000000 		.4byte	0x94
 2289 0edf B6000000 		.4byte	.LLST4
 2290 0ee3 21       		.uleb128 0x21
 2291 0ee4 EF040000 		.4byte	.LASF217
 2292 0ee8 01       		.byte	0x1
 2293 0ee9 35       		.byte	0x35
 2294 0eea 390A0000 		.4byte	0xa39
 2295 0eee C9000000 		.4byte	.LLST5
 2296 0ef2 26       		.uleb128 0x26
 2297 0ef3 34000000 		.4byte	.LBB5
 2298 0ef7 58010000 		.4byte	.LBE5-.LBB5
 2299 0efb 55110000 		.4byte	0x1155
 2300 0eff 21       		.uleb128 0x21
 2301 0f00 4A080000 		.4byte	.LASF218
 2302 0f04 01       		.byte	0x1
 2303 0f05 3C       		.byte	0x3c
 2304 0f06 2D0E0000 		.4byte	0xe2d
 2305 0f0a DC000000 		.4byte	.LLST6
 2306 0f0e 26       		.uleb128 0x26
 2307 0f0f 4C000000 		.4byte	.LBB7
 2308 0f13 00010000 		.4byte	.LBE7-.LBB7
 2309 0f17 3A110000 		.4byte	0x113a
 2310 0f1b 23       		.uleb128 0x23
 2311 0f1c 70743200 		.ascii	"pt2\000"
 2312 0f20 01       		.byte	0x1
 2313 0f21 3E       		.byte	0x3e
 2314 0f22 2D0E0000 		.4byte	0xe2d
 2315 0f26 FA000000 		.4byte	.LLST7
 2316 0f2a 27       		.uleb128 0x27
 2317 0f2b 54000000 		.4byte	.LVL13
 2318 0f2f 0F130000 		.4byte	0x130f
 2319 0f33 480F0000 		.4byte	0xf48
 2320 0f37 28       		.uleb128 0x28
 2321 0f38 01       		.uleb128 0x1
 2322 0f39 51       		.byte	0x51
ARM GAS  /tmp/ccNrqTVO.s 			page 42


 2323 0f3a 05       		.uleb128 0x5
 2324 0f3b 03       		.byte	0x3
 2325 0f3c 08000000 		.4byte	.LC1
 2326 0f40 28       		.uleb128 0x28
 2327 0f41 01       		.uleb128 0x1
 2328 0f42 50       		.byte	0x50
 2329 0f43 03       		.uleb128 0x3
 2330 0f44 91       		.byte	0x91
 2331 0f45 947F     		.sleb128 -108
 2332 0f47 00       		.byte	0
 2333 0f48 27       		.uleb128 0x27
 2334 0f49 66000000 		.4byte	.LVL16
 2335 0f4d 0F130000 		.4byte	0x130f
 2336 0f51 640F0000 		.4byte	0xf64
 2337 0f55 28       		.uleb128 0x28
 2338 0f56 01       		.uleb128 0x1
 2339 0f57 51       		.byte	0x51
 2340 0f58 05       		.uleb128 0x5
 2341 0f59 03       		.byte	0x3
 2342 0f5a 08000000 		.4byte	.LC1
 2343 0f5e 28       		.uleb128 0x28
 2344 0f5f 01       		.uleb128 0x1
 2345 0f60 50       		.byte	0x50
 2346 0f61 01       		.uleb128 0x1
 2347 0f62 30       		.byte	0x30
 2348 0f63 00       		.byte	0
 2349 0f64 27       		.uleb128 0x27
 2350 0f65 7A000000 		.4byte	.LVL18
 2351 0f69 29130000 		.4byte	0x1329
 2352 0f6d 830F0000 		.4byte	0xf83
 2353 0f71 28       		.uleb128 0x28
 2354 0f72 01       		.uleb128 0x1
 2355 0f73 52       		.byte	0x52
 2356 0f74 01       		.uleb128 0x1
 2357 0f75 30       		.byte	0x30
 2358 0f76 28       		.uleb128 0x28
 2359 0f77 01       		.uleb128 0x1
 2360 0f78 51       		.byte	0x51
 2361 0f79 02       		.uleb128 0x2
 2362 0f7a 08       		.byte	0x8
 2363 0f7b 6B       		.byte	0x6b
 2364 0f7c 28       		.uleb128 0x28
 2365 0f7d 01       		.uleb128 0x1
 2366 0f7e 50       		.byte	0x50
 2367 0f7f 02       		.uleb128 0x2
 2368 0f80 08       		.byte	0x8
 2369 0f81 68       		.byte	0x68
 2370 0f82 00       		.byte	0
 2371 0f83 27       		.uleb128 0x27
 2372 0f84 86000000 		.4byte	.LVL19
 2373 0f88 48130000 		.4byte	0x1348
 2374 0f8c A80F0000 		.4byte	0xfa8
 2375 0f90 28       		.uleb128 0x28
 2376 0f91 01       		.uleb128 0x1
 2377 0f92 53       		.byte	0x53
 2378 0f93 01       		.uleb128 0x1
 2379 0f94 32       		.byte	0x32
ARM GAS  /tmp/ccNrqTVO.s 			page 43


 2380 0f95 28       		.uleb128 0x28
 2381 0f96 01       		.uleb128 0x1
 2382 0f97 52       		.byte	0x52
 2383 0f98 02       		.uleb128 0x2
 2384 0f99 7D       		.byte	0x7d
 2385 0f9a 00       		.sleb128 0
 2386 0f9b 28       		.uleb128 0x28
 2387 0f9c 01       		.uleb128 0x1
 2388 0f9d 51       		.byte	0x51
 2389 0f9e 02       		.uleb128 0x2
 2390 0f9f 08       		.byte	0x8
 2391 0fa0 3B       		.byte	0x3b
 2392 0fa1 28       		.uleb128 0x28
 2393 0fa2 01       		.uleb128 0x1
 2394 0fa3 50       		.byte	0x50
 2395 0fa4 02       		.uleb128 0x2
 2396 0fa5 08       		.byte	0x8
 2397 0fa6 68       		.byte	0x68
 2398 0fa7 00       		.byte	0
 2399 0fa8 27       		.uleb128 0x27
 2400 0fa9 AA000000 		.4byte	.LVL21
 2401 0fad 70130000 		.4byte	0x1370
 2402 0fb1 BF0F0000 		.4byte	0xfbf
 2403 0fb5 28       		.uleb128 0x28
 2404 0fb6 01       		.uleb128 0x1
 2405 0fb7 51       		.byte	0x51
 2406 0fb8 05       		.uleb128 0x5
 2407 0fb9 03       		.byte	0x3
 2408 0fba 0C000000 		.4byte	.LC2
 2409 0fbe 00       		.byte	0
 2410 0fbf 29       		.uleb128 0x29
 2411 0fc0 B2000000 		.4byte	.LVL22
 2412 0fc4 70130000 		.4byte	0x1370
 2413 0fc8 27       		.uleb128 0x27
 2414 0fc9 BA000000 		.4byte	.LVL23
 2415 0fcd 70130000 		.4byte	0x1370
 2416 0fd1 DF0F0000 		.4byte	0xfdf
 2417 0fd5 28       		.uleb128 0x28
 2418 0fd6 01       		.uleb128 0x1
 2419 0fd7 51       		.byte	0x51
 2420 0fd8 05       		.uleb128 0x5
 2421 0fd9 03       		.byte	0x3
 2422 0fda 14000000 		.4byte	.LC3
 2423 0fde 00       		.byte	0
 2424 0fdf 27       		.uleb128 0x27
 2425 0fe0 C2000000 		.4byte	.LVL24
 2426 0fe4 70130000 		.4byte	0x1370
 2427 0fe8 F60F0000 		.4byte	0xff6
 2428 0fec 28       		.uleb128 0x28
 2429 0fed 01       		.uleb128 0x1
 2430 0fee 51       		.byte	0x51
 2431 0fef 05       		.uleb128 0x5
 2432 0ff0 03       		.byte	0x3
 2433 0ff1 18000000 		.4byte	.LC4
 2434 0ff5 00       		.byte	0
 2435 0ff6 29       		.uleb128 0x29
 2436 0ff7 CA000000 		.4byte	.LVL25
ARM GAS  /tmp/ccNrqTVO.s 			page 44


 2437 0ffb 70130000 		.4byte	0x1370
 2438 0fff 27       		.uleb128 0x27
 2439 1000 D2000000 		.4byte	.LVL26
 2440 1004 70130000 		.4byte	0x1370
 2441 1008 16100000 		.4byte	0x1016
 2442 100c 28       		.uleb128 0x28
 2443 100d 01       		.uleb128 0x1
 2444 100e 51       		.byte	0x51
 2445 100f 05       		.uleb128 0x5
 2446 1010 03       		.byte	0x3
 2447 1011 14000000 		.4byte	.LC3
 2448 1015 00       		.byte	0
 2449 1016 27       		.uleb128 0x27
 2450 1017 DA000000 		.4byte	.LVL27
 2451 101b 70130000 		.4byte	0x1370
 2452 101f 2D100000 		.4byte	0x102d
 2453 1023 28       		.uleb128 0x28
 2454 1024 01       		.uleb128 0x1
 2455 1025 51       		.byte	0x51
 2456 1026 05       		.uleb128 0x5
 2457 1027 03       		.byte	0x3
 2458 1028 20000000 		.4byte	.LC5
 2459 102c 00       		.byte	0
 2460 102d 29       		.uleb128 0x29
 2461 102e E2000000 		.4byte	.LVL28
 2462 1032 70130000 		.4byte	0x1370
 2463 1036 27       		.uleb128 0x27
 2464 1037 EA000000 		.4byte	.LVL29
 2465 103b 70130000 		.4byte	0x1370
 2466 103f 4D100000 		.4byte	0x104d
 2467 1043 28       		.uleb128 0x28
 2468 1044 01       		.uleb128 0x1
 2469 1045 51       		.byte	0x51
 2470 1046 05       		.uleb128 0x5
 2471 1047 03       		.byte	0x3
 2472 1048 14000000 		.4byte	.LC3
 2473 104c 00       		.byte	0
 2474 104d 27       		.uleb128 0x27
 2475 104e F2000000 		.4byte	.LVL30
 2476 1052 70130000 		.4byte	0x1370
 2477 1056 64100000 		.4byte	0x1064
 2478 105a 28       		.uleb128 0x28
 2479 105b 01       		.uleb128 0x1
 2480 105c 51       		.byte	0x51
 2481 105d 05       		.uleb128 0x5
 2482 105e 03       		.byte	0x3
 2483 105f 28000000 		.4byte	.LC6
 2484 1063 00       		.byte	0
 2485 1064 29       		.uleb128 0x29
 2486 1065 FA000000 		.4byte	.LVL31
 2487 1069 70130000 		.4byte	0x1370
 2488 106d 27       		.uleb128 0x27
 2489 106e 02010000 		.4byte	.LVL32
 2490 1072 70130000 		.4byte	0x1370
 2491 1076 84100000 		.4byte	0x1084
 2492 107a 28       		.uleb128 0x28
 2493 107b 01       		.uleb128 0x1
ARM GAS  /tmp/ccNrqTVO.s 			page 45


 2494 107c 51       		.byte	0x51
 2495 107d 05       		.uleb128 0x5
 2496 107e 03       		.byte	0x3
 2497 107f 14000000 		.4byte	.LC3
 2498 1083 00       		.byte	0
 2499 1084 27       		.uleb128 0x27
 2500 1085 0A010000 		.4byte	.LVL33
 2501 1089 70130000 		.4byte	0x1370
 2502 108d 9B100000 		.4byte	0x109b
 2503 1091 28       		.uleb128 0x28
 2504 1092 01       		.uleb128 0x1
 2505 1093 51       		.byte	0x51
 2506 1094 05       		.uleb128 0x5
 2507 1095 03       		.byte	0x3
 2508 1096 30000000 		.4byte	.LC7
 2509 109a 00       		.byte	0
 2510 109b 29       		.uleb128 0x29
 2511 109c 12010000 		.4byte	.LVL34
 2512 10a0 70130000 		.4byte	0x1370
 2513 10a4 27       		.uleb128 0x27
 2514 10a5 1A010000 		.4byte	.LVL35
 2515 10a9 70130000 		.4byte	0x1370
 2516 10ad BB100000 		.4byte	0x10bb
 2517 10b1 28       		.uleb128 0x28
 2518 10b2 01       		.uleb128 0x1
 2519 10b3 51       		.byte	0x51
 2520 10b4 05       		.uleb128 0x5
 2521 10b5 03       		.byte	0x3
 2522 10b6 14000000 		.4byte	.LC3
 2523 10ba 00       		.byte	0
 2524 10bb 27       		.uleb128 0x27
 2525 10bc 22010000 		.4byte	.LVL36
 2526 10c0 70130000 		.4byte	0x1370
 2527 10c4 D2100000 		.4byte	0x10d2
 2528 10c8 28       		.uleb128 0x28
 2529 10c9 01       		.uleb128 0x1
 2530 10ca 51       		.byte	0x51
 2531 10cb 05       		.uleb128 0x5
 2532 10cc 03       		.byte	0x3
 2533 10cd 34000000 		.4byte	.LC8
 2534 10d1 00       		.byte	0
 2535 10d2 29       		.uleb128 0x29
 2536 10d3 2A010000 		.4byte	.LVL37
 2537 10d7 70130000 		.4byte	0x1370
 2538 10db 27       		.uleb128 0x27
 2539 10dc 32010000 		.4byte	.LVL38
 2540 10e0 70130000 		.4byte	0x1370
 2541 10e4 F2100000 		.4byte	0x10f2
 2542 10e8 28       		.uleb128 0x28
 2543 10e9 01       		.uleb128 0x1
 2544 10ea 51       		.byte	0x51
 2545 10eb 05       		.uleb128 0x5
 2546 10ec 03       		.byte	0x3
 2547 10ed 14000000 		.4byte	.LC3
 2548 10f1 00       		.byte	0
 2549 10f2 27       		.uleb128 0x27
 2550 10f3 3A010000 		.4byte	.LVL39
ARM GAS  /tmp/ccNrqTVO.s 			page 46


 2551 10f7 70130000 		.4byte	0x1370
 2552 10fb 09110000 		.4byte	0x1109
 2553 10ff 28       		.uleb128 0x28
 2554 1100 01       		.uleb128 0x1
 2555 1101 51       		.byte	0x51
 2556 1102 05       		.uleb128 0x5
 2557 1103 03       		.byte	0x3
 2558 1104 3C000000 		.4byte	.LC9
 2559 1108 00       		.byte	0
 2560 1109 27       		.uleb128 0x27
 2561 110a 44010000 		.4byte	.LVL40
 2562 110e 70130000 		.4byte	0x1370
 2563 1112 26110000 		.4byte	0x1126
 2564 1116 28       		.uleb128 0x28
 2565 1117 01       		.uleb128 0x1
 2566 1118 52       		.byte	0x52
 2567 1119 02       		.uleb128 0x2
 2568 111a 74       		.byte	0x74
 2569 111b 00       		.sleb128 0
 2570 111c 28       		.uleb128 0x28
 2571 111d 01       		.uleb128 0x1
 2572 111e 51       		.byte	0x51
 2573 111f 05       		.uleb128 0x5
 2574 1120 03       		.byte	0x3
 2575 1121 44000000 		.4byte	.LC10
 2576 1125 00       		.byte	0
 2577 1126 2A       		.uleb128 0x2a
 2578 1127 4C010000 		.4byte	.LVL41
 2579 112b 70130000 		.4byte	0x1370
 2580 112f 28       		.uleb128 0x28
 2581 1130 01       		.uleb128 0x1
 2582 1131 51       		.byte	0x51
 2583 1132 05       		.uleb128 0x5
 2584 1133 03       		.byte	0x3
 2585 1134 48000000 		.4byte	.LC11
 2586 1138 00       		.byte	0
 2587 1139 00       		.byte	0
 2588 113a 2A       		.uleb128 0x2a
 2589 113b 46000000 		.4byte	.LVL11
 2590 113f 8D130000 		.4byte	0x138d
 2591 1143 28       		.uleb128 0x28
 2592 1144 01       		.uleb128 0x1
 2593 1145 51       		.byte	0x51
 2594 1146 05       		.uleb128 0x5
 2595 1147 03       		.byte	0x3
 2596 1148 00000000 		.4byte	.LC0
 2597 114c 28       		.uleb128 0x28
 2598 114d 01       		.uleb128 0x1
 2599 114e 50       		.byte	0x50
 2600 114f 03       		.uleb128 0x3
 2601 1150 91       		.byte	0x91
 2602 1151 947F     		.sleb128 -108
 2603 1153 00       		.byte	0
 2604 1154 00       		.byte	0
 2605 1155 2A       		.uleb128 0x2a
 2606 1156 10000000 		.4byte	.LVL2
 2607 115a A7130000 		.4byte	0x13a7
ARM GAS  /tmp/ccNrqTVO.s 			page 47


 2608 115e 28       		.uleb128 0x28
 2609 115f 01       		.uleb128 0x1
 2610 1160 51       		.byte	0x51
 2611 1161 02       		.uleb128 0x2
 2612 1162 09       		.byte	0x9
 2613 1163 FF       		.byte	0xff
 2614 1164 00       		.byte	0
 2615 1165 00       		.byte	0
 2616 1166 00       		.byte	0
 2617 1167 00       		.byte	0
 2618 1168 06       		.uleb128 0x6
 2619 1169 390A0000 		.4byte	0xa39
 2620 116d 78110000 		.4byte	0x1178
 2621 1171 07       		.uleb128 0x7
 2622 1172 0A010000 		.4byte	0x10a
 2623 1176 63       		.byte	0x63
 2624 1177 00       		.byte	0
 2625 1178 06       		.uleb128 0x6
 2626 1179 2D0E0000 		.4byte	0xe2d
 2627 117d 88110000 		.4byte	0x1188
 2628 1181 07       		.uleb128 0x7
 2629 1182 0A010000 		.4byte	0x10a
 2630 1186 0F       		.byte	0xf
 2631 1187 00       		.byte	0
 2632 1188 06       		.uleb128 0x6
 2633 1189 37000000 		.4byte	0x37
 2634 118d 98110000 		.4byte	0x1198
 2635 1191 07       		.uleb128 0x7
 2636 1192 0A010000 		.4byte	0x10a
 2637 1196 01       		.byte	0x1
 2638 1197 00       		.byte	0
 2639 1198 1D       		.uleb128 0x1d
 2640 1199 0B000000 		.4byte	.LASF220
 2641 119d 01       		.byte	0x1
 2642 119e 19       		.byte	0x19
 2643 119f 20070000 		.4byte	0x720
 2644 11a3 00000000 		.4byte	.LFB36
 2645 11a7 24000000 		.4byte	.LFE36-.LFB36
 2646 11ab 01       		.uleb128 0x1
 2647 11ac 9C       		.byte	0x9c
 2648 11ad E5110000 		.4byte	0x11e5
 2649 11b1 1E       		.uleb128 0x1e
 2650 11b2 61726700 		.ascii	"arg\000"
 2651 11b6 01       		.byte	0x1
 2652 11b7 19       		.byte	0x19
 2653 11b8 D7080000 		.4byte	0x8d7
 2654 11bc 2F010000 		.4byte	.LLST8
 2655 11c0 27       		.uleb128 0x27
 2656 11c1 14000000 		.4byte	.LVL46
 2657 11c5 C8130000 		.4byte	0x13c8
 2658 11c9 D5110000 		.4byte	0x11d5
 2659 11cd 28       		.uleb128 0x28
 2660 11ce 01       		.uleb128 0x1
 2661 11cf 50       		.byte	0x50
 2662 11d0 03       		.uleb128 0x3
 2663 11d1 0A       		.byte	0xa
 2664 11d2 E803     		.2byte	0x3e8
ARM GAS  /tmp/ccNrqTVO.s 			page 48


 2665 11d4 00       		.byte	0
 2666 11d5 2A       		.uleb128 0x2a
 2667 11d6 1C000000 		.4byte	.LVL47
 2668 11da C8130000 		.4byte	0x13c8
 2669 11de 28       		.uleb128 0x28
 2670 11df 01       		.uleb128 0x1
 2671 11e0 50       		.byte	0x50
 2672 11e1 01       		.uleb128 0x1
 2673 11e2 31       		.byte	0x31
 2674 11e3 00       		.byte	0
 2675 11e4 00       		.byte	0
 2676 11e5 2B       		.uleb128 0x2b
 2677 11e6 8A010000 		.4byte	.LASF239
 2678 11ea 01       		.byte	0x1
 2679 11eb 6F       		.byte	0x6f
 2680 11ec 94000000 		.4byte	0x94
 2681 11f0 00000000 		.4byte	.LFB38
 2682 11f4 60000000 		.4byte	.LFE38-.LFB38
 2683 11f8 01       		.uleb128 0x1
 2684 11f9 9C       		.byte	0x9c
 2685 11fa A6120000 		.4byte	0x12a6
 2686 11fe 29       		.uleb128 0x29
 2687 11ff 08000000 		.4byte	.LVL48
 2688 1203 DA130000 		.4byte	0x13da
 2689 1207 29       		.uleb128 0x29
 2690 1208 0E000000 		.4byte	.LVL49
 2691 120c E1130000 		.4byte	0x13e1
 2692 1210 27       		.uleb128 0x27
 2693 1211 16000000 		.4byte	.LVL50
 2694 1215 E8130000 		.4byte	0x13e8
 2695 1219 24120000 		.4byte	0x1224
 2696 121d 28       		.uleb128 0x28
 2697 121e 01       		.uleb128 0x1
 2698 121f 51       		.byte	0x51
 2699 1220 02       		.uleb128 0x2
 2700 1221 74       		.byte	0x74
 2701 1222 00       		.sleb128 0
 2702 1223 00       		.byte	0
 2703 1224 27       		.uleb128 0x27
 2704 1225 1E000000 		.4byte	.LVL51
 2705 1229 E8130000 		.4byte	0x13e8
 2706 122d 38120000 		.4byte	0x1238
 2707 1231 28       		.uleb128 0x28
 2708 1232 01       		.uleb128 0x1
 2709 1233 51       		.byte	0x51
 2710 1234 02       		.uleb128 0x2
 2711 1235 74       		.byte	0x74
 2712 1236 00       		.sleb128 0
 2713 1237 00       		.byte	0
 2714 1238 29       		.uleb128 0x29
 2715 1239 22000000 		.4byte	.LVL52
 2716 123d 10140000 		.4byte	0x1410
 2717 1241 27       		.uleb128 0x27
 2718 1242 32000000 		.4byte	.LVL53
 2719 1246 1B140000 		.4byte	0x141b
 2720 124a 75120000 		.4byte	0x1275
 2721 124e 28       		.uleb128 0x28
ARM GAS  /tmp/ccNrqTVO.s 			page 49


 2722 124f 01       		.uleb128 0x1
 2723 1250 53       		.byte	0x53
 2724 1251 05       		.uleb128 0x5
 2725 1252 03       		.byte	0x3
 2726 1253 00000000 		.4byte	_ZL7Thread1Pv
 2727 1257 28       		.uleb128 0x28
 2728 1258 01       		.uleb128 0x1
 2729 1259 52       		.byte	0x52
 2730 125a 02       		.uleb128 0x2
 2731 125b 08       		.byte	0x8
 2732 125c 40       		.byte	0x40
 2733 125d 28       		.uleb128 0x28
 2734 125e 01       		.uleb128 0x1
 2735 125f 51       		.byte	0x51
 2736 1260 03       		.uleb128 0x3
 2737 1261 0A       		.byte	0xa
 2738 1262 3001     		.2byte	0x130
 2739 1264 28       		.uleb128 0x28
 2740 1265 01       		.uleb128 0x1
 2741 1266 50       		.byte	0x50
 2742 1267 05       		.uleb128 0x5
 2743 1268 03       		.byte	0x3
 2744 1269 00000000 		.4byte	.LANCHOR0
 2745 126d 28       		.uleb128 0x28
 2746 126e 02       		.uleb128 0x2
 2747 126f 7D       		.byte	0x7d
 2748 1270 00       		.sleb128 0
 2749 1271 02       		.uleb128 0x2
 2750 1272 74       		.byte	0x74
 2751 1273 00       		.sleb128 0
 2752 1274 00       		.byte	0
 2753 1275 2A       		.uleb128 0x2a
 2754 1276 42000000 		.4byte	.LVL54
 2755 127a 1B140000 		.4byte	0x141b
 2756 127e 28       		.uleb128 0x28
 2757 127f 01       		.uleb128 0x1
 2758 1280 53       		.byte	0x53
 2759 1281 05       		.uleb128 0x5
 2760 1282 03       		.byte	0x3
 2761 1283 00000000 		.4byte	_ZL9GPSThreadPv
 2762 1287 28       		.uleb128 0x28
 2763 1288 01       		.uleb128 0x1
 2764 1289 52       		.byte	0x52
 2765 128a 02       		.uleb128 0x2
 2766 128b 08       		.byte	0x8
 2767 128c FF       		.byte	0xff
 2768 128d 28       		.uleb128 0x28
 2769 128e 01       		.uleb128 0x1
 2770 128f 51       		.byte	0x51
 2771 1290 03       		.uleb128 0x3
 2772 1291 0A       		.byte	0xa
 2773 1292 B004     		.2byte	0x4b0
 2774 1294 28       		.uleb128 0x28
 2775 1295 01       		.uleb128 0x1
 2776 1296 50       		.byte	0x50
 2777 1297 05       		.uleb128 0x5
 2778 1298 03       		.byte	0x3
ARM GAS  /tmp/ccNrqTVO.s 			page 50


 2779 1299 00000000 		.4byte	.LANCHOR1
 2780 129d 28       		.uleb128 0x28
 2781 129e 02       		.uleb128 0x2
 2782 129f 7D       		.byte	0x7d
 2783 12a0 00       		.sleb128 0
 2784 12a1 02       		.uleb128 0x2
 2785 12a2 74       		.byte	0x74
 2786 12a3 00       		.sleb128 0
 2787 12a4 00       		.byte	0
 2788 12a5 00       		.byte	0
 2789 12a6 2C       		.uleb128 0x2c
 2790 12a7 A2050000 		.4byte	.LASF221
 2791 12ab 17       		.byte	0x17
 2792 12ac CE06     		.2byte	0x6ce
 2793 12ae B2120000 		.4byte	0x12b2
 2794 12b2 05       		.uleb128 0x5
 2795 12b3 94000000 		.4byte	0x94
 2796 12b7 2D       		.uleb128 0x2d
 2797 12b8 53443100 		.ascii	"SD1\000"
 2798 12bc 11       		.byte	0x11
 2799 12bd 81       		.byte	0x81
 2800 12be E10C0000 		.4byte	0xce1
 2801 12c2 2D       		.uleb128 0x2d
 2802 12c3 53443200 		.ascii	"SD2\000"
 2803 12c7 11       		.byte	0x11
 2804 12c8 85       		.byte	0x85
 2805 12c9 E10C0000 		.4byte	0xce1
 2806 12cd 06       		.uleb128 0x6
 2807 12ce 8D000000 		.4byte	0x8d
 2808 12d2 DD120000 		.4byte	0x12dd
 2809 12d6 07       		.uleb128 0x7
 2810 12d7 0A010000 		.4byte	0x10a
 2811 12db 25       		.byte	0x25
 2812 12dc 00       		.byte	0
 2813 12dd 20       		.uleb128 0x20
 2814 12de F2090000 		.4byte	.LASF222
 2815 12e2 01       		.byte	0x1
 2816 12e3 17       		.byte	0x17
 2817 12e4 CD120000 		.4byte	0x12cd
 2818 12e8 05       		.uleb128 0x5
 2819 12e9 03       		.byte	0x3
 2820 12ea 00000000 		.4byte	_ZL9waThread1
 2821 12ee 06       		.uleb128 0x6
 2822 12ef 8D000000 		.4byte	0x8d
 2823 12f3 FE120000 		.4byte	0x12fe
 2824 12f7 07       		.uleb128 0x7
 2825 12f8 0A010000 		.4byte	0x10a
 2826 12fc 95       		.byte	0x95
 2827 12fd 00       		.byte	0
 2828 12fe 20       		.uleb128 0x20
 2829 12ff 32050000 		.4byte	.LASF223
 2830 1303 01       		.byte	0x1
 2831 1304 26       		.byte	0x26
 2832 1305 EE120000 		.4byte	0x12ee
 2833 1309 05       		.uleb128 0x5
 2834 130a 03       		.byte	0x3
 2835 130b 00000000 		.4byte	_ZL7AreaGPS
ARM GAS  /tmp/ccNrqTVO.s 			page 51


 2836 130f 2E       		.uleb128 0x2e
 2837 1310 5B080000 		.4byte	.LASF224
 2838 1314 12       		.byte	0x12
 2839 1315 2A       		.byte	0x2a
 2840 1316 2D0E0000 		.4byte	0xe2d
 2841 131a 29130000 		.4byte	0x1329
 2842 131e 19       		.uleb128 0x19
 2843 131f 2D0E0000 		.4byte	0xe2d
 2844 1323 19       		.uleb128 0x19
 2845 1324 2E0A0000 		.4byte	0xa2e
 2846 1328 00       		.byte	0
 2847 1329 2F       		.uleb128 0x2f
 2848 132a B9090000 		.4byte	.LASF225
 2849 132e 13       		.byte	0x13
 2850 132f 1C       		.byte	0x1c
 2851 1330 0C010000 		.4byte	.LASF240
 2852 1334 48130000 		.4byte	0x1348
 2853 1338 19       		.uleb128 0x19
 2854 1339 A2000000 		.4byte	0xa2
 2855 133d 19       		.uleb128 0x19
 2856 133e A2000000 		.4byte	0xa2
 2857 1342 19       		.uleb128 0x19
 2858 1343 A2000000 		.4byte	0xa2
 2859 1347 00       		.byte	0
 2860 1348 30       		.uleb128 0x30
 2861 1349 E7060000 		.4byte	.LASF241
 2862 134d 13       		.byte	0x13
 2863 134e 1D       		.byte	0x1d
 2864 134f 34080000 		.4byte	.LASF242
 2865 1353 A2000000 		.4byte	0xa2
 2866 1357 70130000 		.4byte	0x1370
 2867 135b 19       		.uleb128 0x19
 2868 135c A2000000 		.4byte	0xa2
 2869 1360 19       		.uleb128 0x19
 2870 1361 A2000000 		.4byte	0xa2
 2871 1365 19       		.uleb128 0x19
 2872 1366 F40A0000 		.4byte	0xaf4
 2873 136a 19       		.uleb128 0x19
 2874 136b A2000000 		.4byte	0xa2
 2875 136f 00       		.byte	0
 2876 1370 31       		.uleb128 0x31
 2877 1371 6A030000 		.4byte	.LASF228
 2878 1375 14       		.byte	0x14
 2879 1376 2A       		.byte	0x2a
 2880 1377 87130000 		.4byte	0x1387
 2881 137b 19       		.uleb128 0x19
 2882 137c 87130000 		.4byte	0x1387
 2883 1380 19       		.uleb128 0x19
 2884 1381 2E0A0000 		.4byte	0xa2e
 2885 1385 32       		.uleb128 0x32
 2886 1386 00       		.byte	0
 2887 1387 13       		.uleb128 0x13
 2888 1388 04       		.byte	0x4
 2889 1389 800C0000 		.4byte	0xc80
 2890 138d 2E       		.uleb128 0x2e
 2891 138e 91000000 		.4byte	.LASF226
 2892 1392 12       		.byte	0x12
ARM GAS  /tmp/ccNrqTVO.s 			page 52


 2893 1393 28       		.byte	0x28
 2894 1394 2D0E0000 		.4byte	0xe2d
 2895 1398 A7130000 		.4byte	0x13a7
 2896 139c 19       		.uleb128 0x19
 2897 139d 2E0A0000 		.4byte	0xa2e
 2898 13a1 19       		.uleb128 0x19
 2899 13a2 2E0A0000 		.4byte	0xa2e
 2900 13a6 00       		.byte	0
 2901 13a7 33       		.uleb128 0x33
 2902 13a8 05060000 		.4byte	.LASF227
 2903 13ac 0D       		.byte	0xd
 2904 13ad 5301     		.2byte	0x153
 2905 13af 20070000 		.4byte	0x720
 2906 13b3 C2130000 		.4byte	0x13c2
 2907 13b7 19       		.uleb128 0x19
 2908 13b8 C2130000 		.4byte	0x13c2
 2909 13bc 19       		.uleb128 0x19
 2910 13bd 36070000 		.4byte	0x736
 2911 13c1 00       		.byte	0
 2912 13c2 13       		.uleb128 0x13
 2913 13c3 04       		.byte	0x4
 2914 13c4 FA0A0000 		.4byte	0xafa
 2915 13c8 34       		.uleb128 0x34
 2916 13c9 73030000 		.4byte	.LASF229
 2917 13cd 09       		.byte	0x9
 2918 13ce 6901     		.2byte	0x169
 2919 13d0 DA130000 		.4byte	0x13da
 2920 13d4 19       		.uleb128 0x19
 2921 13d5 36070000 		.4byte	0x736
 2922 13d9 00       		.byte	0
 2923 13da 35       		.uleb128 0x35
 2924 13db 2A050000 		.4byte	.LASF230
 2925 13df 15       		.byte	0x15
 2926 13e0 A4       		.byte	0xa4
 2927 13e1 35       		.uleb128 0x35
 2928 13e2 F0080000 		.4byte	.LASF231
 2929 13e6 16       		.byte	0x16
 2930 13e7 F6       		.byte	0xf6
 2931 13e8 34       		.uleb128 0x34
 2932 13e9 07050000 		.4byte	.LASF232
 2933 13ed 10       		.byte	0x10
 2934 13ee 3901     		.2byte	0x139
 2935 13f0 FF130000 		.4byte	0x13ff
 2936 13f4 19       		.uleb128 0x19
 2937 13f5 FF130000 		.4byte	0x13ff
 2938 13f9 19       		.uleb128 0x19
 2939 13fa 05140000 		.4byte	0x1405
 2940 13fe 00       		.byte	0
 2941 13ff 13       		.uleb128 0x13
 2942 1400 04       		.byte	0x4
 2943 1401 E10C0000 		.4byte	0xce1
 2944 1405 13       		.uleb128 0x13
 2945 1406 04       		.byte	0x4
 2946 1407 0B140000 		.4byte	0x140b
 2947 140b 17       		.uleb128 0x17
 2948 140c 880D0000 		.4byte	0xd88
 2949 1410 36       		.uleb128 0x36
ARM GAS  /tmp/ccNrqTVO.s 			page 53


 2950 1411 87080000 		.4byte	.LASF243
 2951 1415 13       		.byte	0x13
 2952 1416 1B       		.byte	0x1b
 2953 1417 9B060000 		.4byte	.LASF244
 2954 141b 37       		.uleb128 0x37
 2955 141c 18050000 		.4byte	.LASF233
 2956 1420 09       		.byte	0x9
 2957 1421 6401     		.2byte	0x164
 2958 1423 97080000 		.4byte	0x897
 2959 1427 19       		.uleb128 0x19
 2960 1428 D7080000 		.4byte	0x8d7
 2961 142c 19       		.uleb128 0x19
 2962 142d DE060000 		.4byte	0x6de
 2963 1431 19       		.uleb128 0x19
 2964 1432 15070000 		.4byte	0x715
 2965 1436 19       		.uleb128 0x19
 2966 1437 460A0000 		.4byte	0xa46
 2967 143b 19       		.uleb128 0x19
 2968 143c D7080000 		.4byte	0x8d7
 2969 1440 00       		.byte	0
 2970 1441 00       		.byte	0
 2971              		.section	.debug_abbrev,"",%progbits
 2972              	.Ldebug_abbrev0:
 2973 0000 01       		.uleb128 0x1
 2974 0001 11       		.uleb128 0x11
 2975 0002 01       		.byte	0x1
 2976 0003 25       		.uleb128 0x25
 2977 0004 0E       		.uleb128 0xe
 2978 0005 13       		.uleb128 0x13
 2979 0006 0B       		.uleb128 0xb
 2980 0007 03       		.uleb128 0x3
 2981 0008 0E       		.uleb128 0xe
 2982 0009 1B       		.uleb128 0x1b
 2983 000a 0E       		.uleb128 0xe
 2984 000b 55       		.uleb128 0x55
 2985 000c 17       		.uleb128 0x17
 2986 000d 11       		.uleb128 0x11
 2987 000e 01       		.uleb128 0x1
 2988 000f 10       		.uleb128 0x10
 2989 0010 17       		.uleb128 0x17
 2990 0011 00       		.byte	0
 2991 0012 00       		.byte	0
 2992 0013 02       		.uleb128 0x2
 2993 0014 24       		.uleb128 0x24
 2994 0015 00       		.byte	0
 2995 0016 0B       		.uleb128 0xb
 2996 0017 0B       		.uleb128 0xb
 2997 0018 3E       		.uleb128 0x3e
 2998 0019 0B       		.uleb128 0xb
 2999 001a 03       		.uleb128 0x3
 3000 001b 0E       		.uleb128 0xe
 3001 001c 00       		.byte	0
 3002 001d 00       		.byte	0
 3003 001e 03       		.uleb128 0x3
 3004 001f 16       		.uleb128 0x16
 3005 0020 00       		.byte	0
 3006 0021 03       		.uleb128 0x3
ARM GAS  /tmp/ccNrqTVO.s 			page 54


 3007 0022 0E       		.uleb128 0xe
 3008 0023 3A       		.uleb128 0x3a
 3009 0024 0B       		.uleb128 0xb
 3010 0025 3B       		.uleb128 0x3b
 3011 0026 0B       		.uleb128 0xb
 3012 0027 49       		.uleb128 0x49
 3013 0028 13       		.uleb128 0x13
 3014 0029 00       		.byte	0
 3015 002a 00       		.byte	0
 3016 002b 04       		.uleb128 0x4
 3017 002c 24       		.uleb128 0x24
 3018 002d 00       		.byte	0
 3019 002e 0B       		.uleb128 0xb
 3020 002f 0B       		.uleb128 0xb
 3021 0030 3E       		.uleb128 0x3e
 3022 0031 0B       		.uleb128 0xb
 3023 0032 03       		.uleb128 0x3
 3024 0033 08       		.uleb128 0x8
 3025 0034 00       		.byte	0
 3026 0035 00       		.byte	0
 3027 0036 05       		.uleb128 0x5
 3028 0037 35       		.uleb128 0x35
 3029 0038 00       		.byte	0
 3030 0039 49       		.uleb128 0x49
 3031 003a 13       		.uleb128 0x13
 3032 003b 00       		.byte	0
 3033 003c 00       		.byte	0
 3034 003d 06       		.uleb128 0x6
 3035 003e 01       		.uleb128 0x1
 3036 003f 01       		.byte	0x1
 3037 0040 49       		.uleb128 0x49
 3038 0041 13       		.uleb128 0x13
 3039 0042 01       		.uleb128 0x1
 3040 0043 13       		.uleb128 0x13
 3041 0044 00       		.byte	0
 3042 0045 00       		.byte	0
 3043 0046 07       		.uleb128 0x7
 3044 0047 21       		.uleb128 0x21
 3045 0048 00       		.byte	0
 3046 0049 49       		.uleb128 0x49
 3047 004a 13       		.uleb128 0x13
 3048 004b 2F       		.uleb128 0x2f
 3049 004c 0B       		.uleb128 0xb
 3050 004d 00       		.byte	0
 3051 004e 00       		.byte	0
 3052 004f 08       		.uleb128 0x8
 3053 0050 13       		.uleb128 0x13
 3054 0051 01       		.byte	0x1
 3055 0052 0B       		.uleb128 0xb
 3056 0053 05       		.uleb128 0x5
 3057 0054 3A       		.uleb128 0x3a
 3058 0055 0B       		.uleb128 0xb
 3059 0056 3B       		.uleb128 0x3b
 3060 0057 05       		.uleb128 0x5
 3061 0058 6E       		.uleb128 0x6e
 3062 0059 0E       		.uleb128 0xe
 3063 005a 01       		.uleb128 0x1
ARM GAS  /tmp/ccNrqTVO.s 			page 55


 3064 005b 13       		.uleb128 0x13
 3065 005c 00       		.byte	0
 3066 005d 00       		.byte	0
 3067 005e 09       		.uleb128 0x9
 3068 005f 0D       		.uleb128 0xd
 3069 0060 00       		.byte	0
 3070 0061 03       		.uleb128 0x3
 3071 0062 0E       		.uleb128 0xe
 3072 0063 3A       		.uleb128 0x3a
 3073 0064 0B       		.uleb128 0xb
 3074 0065 3B       		.uleb128 0x3b
 3075 0066 05       		.uleb128 0x5
 3076 0067 49       		.uleb128 0x49
 3077 0068 13       		.uleb128 0x13
 3078 0069 38       		.uleb128 0x38
 3079 006a 0B       		.uleb128 0xb
 3080 006b 00       		.byte	0
 3081 006c 00       		.byte	0
 3082 006d 0A       		.uleb128 0xa
 3083 006e 0D       		.uleb128 0xd
 3084 006f 00       		.byte	0
 3085 0070 03       		.uleb128 0x3
 3086 0071 0E       		.uleb128 0xe
 3087 0072 3A       		.uleb128 0x3a
 3088 0073 0B       		.uleb128 0xb
 3089 0074 3B       		.uleb128 0x3b
 3090 0075 05       		.uleb128 0x5
 3091 0076 49       		.uleb128 0x49
 3092 0077 13       		.uleb128 0x13
 3093 0078 38       		.uleb128 0x38
 3094 0079 05       		.uleb128 0x5
 3095 007a 00       		.byte	0
 3096 007b 00       		.byte	0
 3097 007c 0B       		.uleb128 0xb
 3098 007d 16       		.uleb128 0x16
 3099 007e 00       		.byte	0
 3100 007f 03       		.uleb128 0x3
 3101 0080 08       		.uleb128 0x8
 3102 0081 3A       		.uleb128 0x3a
 3103 0082 0B       		.uleb128 0xb
 3104 0083 3B       		.uleb128 0x3b
 3105 0084 05       		.uleb128 0x5
 3106 0085 49       		.uleb128 0x49
 3107 0086 13       		.uleb128 0x13
 3108 0087 00       		.byte	0
 3109 0088 00       		.byte	0
 3110 0089 0C       		.uleb128 0xc
 3111 008a 16       		.uleb128 0x16
 3112 008b 00       		.byte	0
 3113 008c 03       		.uleb128 0x3
 3114 008d 0E       		.uleb128 0xe
 3115 008e 3A       		.uleb128 0x3a
 3116 008f 0B       		.uleb128 0xb
 3117 0090 3B       		.uleb128 0x3b
 3118 0091 05       		.uleb128 0x5
 3119 0092 49       		.uleb128 0x49
 3120 0093 13       		.uleb128 0x13
ARM GAS  /tmp/ccNrqTVO.s 			page 56


 3121 0094 00       		.byte	0
 3122 0095 00       		.byte	0
 3123 0096 0D       		.uleb128 0xd
 3124 0097 13       		.uleb128 0x13
 3125 0098 01       		.byte	0x1
 3126 0099 03       		.uleb128 0x3
 3127 009a 0E       		.uleb128 0xe
 3128 009b 0B       		.uleb128 0xb
 3129 009c 0B       		.uleb128 0xb
 3130 009d 3A       		.uleb128 0x3a
 3131 009e 0B       		.uleb128 0xb
 3132 009f 3B       		.uleb128 0x3b
 3133 00a0 0B       		.uleb128 0xb
 3134 00a1 01       		.uleb128 0x1
 3135 00a2 13       		.uleb128 0x13
 3136 00a3 00       		.byte	0
 3137 00a4 00       		.byte	0
 3138 00a5 0E       		.uleb128 0xe
 3139 00a6 17       		.uleb128 0x17
 3140 00a7 01       		.byte	0x1
 3141 00a8 0B       		.uleb128 0xb
 3142 00a9 0B       		.uleb128 0xb
 3143 00aa 3A       		.uleb128 0x3a
 3144 00ab 0B       		.uleb128 0xb
 3145 00ac 3B       		.uleb128 0x3b
 3146 00ad 0B       		.uleb128 0xb
 3147 00ae 01       		.uleb128 0x1
 3148 00af 13       		.uleb128 0x13
 3149 00b0 00       		.byte	0
 3150 00b1 00       		.byte	0
 3151 00b2 0F       		.uleb128 0xf
 3152 00b3 0D       		.uleb128 0xd
 3153 00b4 00       		.byte	0
 3154 00b5 03       		.uleb128 0x3
 3155 00b6 0E       		.uleb128 0xe
 3156 00b7 3A       		.uleb128 0x3a
 3157 00b8 0B       		.uleb128 0xb
 3158 00b9 3B       		.uleb128 0x3b
 3159 00ba 0B       		.uleb128 0xb
 3160 00bb 49       		.uleb128 0x49
 3161 00bc 13       		.uleb128 0x13
 3162 00bd 00       		.byte	0
 3163 00be 00       		.byte	0
 3164 00bf 10       		.uleb128 0x10
 3165 00c0 0D       		.uleb128 0xd
 3166 00c1 00       		.byte	0
 3167 00c2 03       		.uleb128 0x3
 3168 00c3 0E       		.uleb128 0xe
 3169 00c4 3A       		.uleb128 0x3a
 3170 00c5 0B       		.uleb128 0xb
 3171 00c6 3B       		.uleb128 0x3b
 3172 00c7 0B       		.uleb128 0xb
 3173 00c8 49       		.uleb128 0x49
 3174 00c9 13       		.uleb128 0x13
 3175 00ca 38       		.uleb128 0x38
 3176 00cb 0B       		.uleb128 0xb
 3177 00cc 00       		.byte	0
ARM GAS  /tmp/ccNrqTVO.s 			page 57


 3178 00cd 00       		.byte	0
 3179 00ce 11       		.uleb128 0x11
 3180 00cf 0D       		.uleb128 0xd
 3181 00d0 00       		.byte	0
 3182 00d1 03       		.uleb128 0x3
 3183 00d2 08       		.uleb128 0x8
 3184 00d3 3A       		.uleb128 0x3a
 3185 00d4 0B       		.uleb128 0xb
 3186 00d5 3B       		.uleb128 0x3b
 3187 00d6 0B       		.uleb128 0xb
 3188 00d7 49       		.uleb128 0x49
 3189 00d8 13       		.uleb128 0x13
 3190 00d9 38       		.uleb128 0x38
 3191 00da 0B       		.uleb128 0xb
 3192 00db 00       		.byte	0
 3193 00dc 00       		.byte	0
 3194 00dd 12       		.uleb128 0x12
 3195 00de 13       		.uleb128 0x13
 3196 00df 01       		.byte	0x1
 3197 00e0 0B       		.uleb128 0xb
 3198 00e1 0B       		.uleb128 0xb
 3199 00e2 3A       		.uleb128 0x3a
 3200 00e3 0B       		.uleb128 0xb
 3201 00e4 3B       		.uleb128 0x3b
 3202 00e5 0B       		.uleb128 0xb
 3203 00e6 6E       		.uleb128 0x6e
 3204 00e7 0E       		.uleb128 0xe
 3205 00e8 01       		.uleb128 0x1
 3206 00e9 13       		.uleb128 0x13
 3207 00ea 00       		.byte	0
 3208 00eb 00       		.byte	0
 3209 00ec 13       		.uleb128 0x13
 3210 00ed 0F       		.uleb128 0xf
 3211 00ee 00       		.byte	0
 3212 00ef 0B       		.uleb128 0xb
 3213 00f0 0B       		.uleb128 0xb
 3214 00f1 49       		.uleb128 0x49
 3215 00f2 13       		.uleb128 0x13
 3216 00f3 00       		.byte	0
 3217 00f4 00       		.byte	0
 3218 00f5 14       		.uleb128 0x14
 3219 00f6 0F       		.uleb128 0xf
 3220 00f7 00       		.byte	0
 3221 00f8 0B       		.uleb128 0xb
 3222 00f9 0B       		.uleb128 0xb
 3223 00fa 00       		.byte	0
 3224 00fb 00       		.byte	0
 3225 00fc 15       		.uleb128 0x15
 3226 00fd 0D       		.uleb128 0xd
 3227 00fe 00       		.byte	0
 3228 00ff 03       		.uleb128 0x3
 3229 0100 08       		.uleb128 0x8
 3230 0101 3A       		.uleb128 0x3a
 3231 0102 0B       		.uleb128 0xb
 3232 0103 3B       		.uleb128 0x3b
 3233 0104 05       		.uleb128 0x5
 3234 0105 49       		.uleb128 0x49
ARM GAS  /tmp/ccNrqTVO.s 			page 58


 3235 0106 13       		.uleb128 0x13
 3236 0107 38       		.uleb128 0x38
 3237 0108 0B       		.uleb128 0xb
 3238 0109 00       		.byte	0
 3239 010a 00       		.byte	0
 3240 010b 16       		.uleb128 0x16
 3241 010c 13       		.uleb128 0x13
 3242 010d 01       		.byte	0x1
 3243 010e 03       		.uleb128 0x3
 3244 010f 0E       		.uleb128 0xe
 3245 0110 0B       		.uleb128 0xb
 3246 0111 0B       		.uleb128 0xb
 3247 0112 3A       		.uleb128 0x3a
 3248 0113 0B       		.uleb128 0xb
 3249 0114 3B       		.uleb128 0x3b
 3250 0115 05       		.uleb128 0x5
 3251 0116 01       		.uleb128 0x1
 3252 0117 13       		.uleb128 0x13
 3253 0118 00       		.byte	0
 3254 0119 00       		.byte	0
 3255 011a 17       		.uleb128 0x17
 3256 011b 26       		.uleb128 0x26
 3257 011c 00       		.byte	0
 3258 011d 49       		.uleb128 0x49
 3259 011e 13       		.uleb128 0x13
 3260 011f 00       		.byte	0
 3261 0120 00       		.byte	0
 3262 0121 18       		.uleb128 0x18
 3263 0122 15       		.uleb128 0x15
 3264 0123 01       		.byte	0x1
 3265 0124 49       		.uleb128 0x49
 3266 0125 13       		.uleb128 0x13
 3267 0126 01       		.uleb128 0x1
 3268 0127 13       		.uleb128 0x13
 3269 0128 00       		.byte	0
 3270 0129 00       		.byte	0
 3271 012a 19       		.uleb128 0x19
 3272 012b 05       		.uleb128 0x5
 3273 012c 00       		.byte	0
 3274 012d 49       		.uleb128 0x49
 3275 012e 13       		.uleb128 0x13
 3276 012f 00       		.byte	0
 3277 0130 00       		.byte	0
 3278 0131 1A       		.uleb128 0x1a
 3279 0132 15       		.uleb128 0x15
 3280 0133 01       		.byte	0x1
 3281 0134 01       		.uleb128 0x1
 3282 0135 13       		.uleb128 0x13
 3283 0136 00       		.byte	0
 3284 0137 00       		.byte	0
 3285 0138 1B       		.uleb128 0x1b
 3286 0139 04       		.uleb128 0x4
 3287 013a 01       		.byte	0x1
 3288 013b 0B       		.uleb128 0xb
 3289 013c 0B       		.uleb128 0xb
 3290 013d 3A       		.uleb128 0x3a
 3291 013e 0B       		.uleb128 0xb
ARM GAS  /tmp/ccNrqTVO.s 			page 59


 3292 013f 3B       		.uleb128 0x3b
 3293 0140 0B       		.uleb128 0xb
 3294 0141 6E       		.uleb128 0x6e
 3295 0142 0E       		.uleb128 0xe
 3296 0143 01       		.uleb128 0x1
 3297 0144 13       		.uleb128 0x13
 3298 0145 00       		.byte	0
 3299 0146 00       		.byte	0
 3300 0147 1C       		.uleb128 0x1c
 3301 0148 28       		.uleb128 0x28
 3302 0149 00       		.byte	0
 3303 014a 03       		.uleb128 0x3
 3304 014b 0E       		.uleb128 0xe
 3305 014c 1C       		.uleb128 0x1c
 3306 014d 0D       		.uleb128 0xd
 3307 014e 00       		.byte	0
 3308 014f 00       		.byte	0
 3309 0150 1D       		.uleb128 0x1d
 3310 0151 2E       		.uleb128 0x2e
 3311 0152 01       		.byte	0x1
 3312 0153 03       		.uleb128 0x3
 3313 0154 0E       		.uleb128 0xe
 3314 0155 3A       		.uleb128 0x3a
 3315 0156 0B       		.uleb128 0xb
 3316 0157 3B       		.uleb128 0x3b
 3317 0158 0B       		.uleb128 0xb
 3318 0159 49       		.uleb128 0x49
 3319 015a 13       		.uleb128 0x13
 3320 015b 11       		.uleb128 0x11
 3321 015c 01       		.uleb128 0x1
 3322 015d 12       		.uleb128 0x12
 3323 015e 06       		.uleb128 0x6
 3324 015f 40       		.uleb128 0x40
 3325 0160 18       		.uleb128 0x18
 3326 0161 9742     		.uleb128 0x2117
 3327 0163 19       		.uleb128 0x19
 3328 0164 01       		.uleb128 0x1
 3329 0165 13       		.uleb128 0x13
 3330 0166 00       		.byte	0
 3331 0167 00       		.byte	0
 3332 0168 1E       		.uleb128 0x1e
 3333 0169 05       		.uleb128 0x5
 3334 016a 00       		.byte	0
 3335 016b 03       		.uleb128 0x3
 3336 016c 08       		.uleb128 0x8
 3337 016d 3A       		.uleb128 0x3a
 3338 016e 0B       		.uleb128 0xb
 3339 016f 3B       		.uleb128 0x3b
 3340 0170 0B       		.uleb128 0xb
 3341 0171 49       		.uleb128 0x49
 3342 0172 13       		.uleb128 0x13
 3343 0173 02       		.uleb128 0x2
 3344 0174 17       		.uleb128 0x17
 3345 0175 00       		.byte	0
 3346 0176 00       		.byte	0
 3347 0177 1F       		.uleb128 0x1f
 3348 0178 0B       		.uleb128 0xb
ARM GAS  /tmp/ccNrqTVO.s 			page 60


 3349 0179 01       		.byte	0x1
 3350 017a 55       		.uleb128 0x55
 3351 017b 17       		.uleb128 0x17
 3352 017c 00       		.byte	0
 3353 017d 00       		.byte	0
 3354 017e 20       		.uleb128 0x20
 3355 017f 34       		.uleb128 0x34
 3356 0180 00       		.byte	0
 3357 0181 03       		.uleb128 0x3
 3358 0182 0E       		.uleb128 0xe
 3359 0183 3A       		.uleb128 0x3a
 3360 0184 0B       		.uleb128 0xb
 3361 0185 3B       		.uleb128 0x3b
 3362 0186 0B       		.uleb128 0xb
 3363 0187 49       		.uleb128 0x49
 3364 0188 13       		.uleb128 0x13
 3365 0189 02       		.uleb128 0x2
 3366 018a 18       		.uleb128 0x18
 3367 018b 00       		.byte	0
 3368 018c 00       		.byte	0
 3369 018d 21       		.uleb128 0x21
 3370 018e 34       		.uleb128 0x34
 3371 018f 00       		.byte	0
 3372 0190 03       		.uleb128 0x3
 3373 0191 0E       		.uleb128 0xe
 3374 0192 3A       		.uleb128 0x3a
 3375 0193 0B       		.uleb128 0xb
 3376 0194 3B       		.uleb128 0x3b
 3377 0195 0B       		.uleb128 0xb
 3378 0196 49       		.uleb128 0x49
 3379 0197 13       		.uleb128 0x13
 3380 0198 02       		.uleb128 0x2
 3381 0199 17       		.uleb128 0x17
 3382 019a 00       		.byte	0
 3383 019b 00       		.byte	0
 3384 019c 22       		.uleb128 0x22
 3385 019d 34       		.uleb128 0x34
 3386 019e 00       		.byte	0
 3387 019f 03       		.uleb128 0x3
 3388 01a0 0E       		.uleb128 0xe
 3389 01a1 3A       		.uleb128 0x3a
 3390 01a2 0B       		.uleb128 0xb
 3391 01a3 3B       		.uleb128 0x3b
 3392 01a4 0B       		.uleb128 0xb
 3393 01a5 49       		.uleb128 0x49
 3394 01a6 13       		.uleb128 0x13
 3395 01a7 00       		.byte	0
 3396 01a8 00       		.byte	0
 3397 01a9 23       		.uleb128 0x23
 3398 01aa 34       		.uleb128 0x34
 3399 01ab 00       		.byte	0
 3400 01ac 03       		.uleb128 0x3
 3401 01ad 08       		.uleb128 0x8
 3402 01ae 3A       		.uleb128 0x3a
 3403 01af 0B       		.uleb128 0xb
 3404 01b0 3B       		.uleb128 0x3b
 3405 01b1 0B       		.uleb128 0xb
ARM GAS  /tmp/ccNrqTVO.s 			page 61


 3406 01b2 49       		.uleb128 0x49
 3407 01b3 13       		.uleb128 0x13
 3408 01b4 02       		.uleb128 0x2
 3409 01b5 17       		.uleb128 0x17
 3410 01b6 00       		.byte	0
 3411 01b7 00       		.byte	0
 3412 01b8 24       		.uleb128 0x24
 3413 01b9 0B       		.uleb128 0xb
 3414 01ba 01       		.byte	0x1
 3415 01bb 11       		.uleb128 0x11
 3416 01bc 01       		.uleb128 0x1
 3417 01bd 12       		.uleb128 0x12
 3418 01be 06       		.uleb128 0x6
 3419 01bf 00       		.byte	0
 3420 01c0 00       		.byte	0
 3421 01c1 25       		.uleb128 0x25
 3422 01c2 34       		.uleb128 0x34
 3423 01c3 00       		.byte	0
 3424 01c4 03       		.uleb128 0x3
 3425 01c5 08       		.uleb128 0x8
 3426 01c6 3A       		.uleb128 0x3a
 3427 01c7 0B       		.uleb128 0xb
 3428 01c8 3B       		.uleb128 0x3b
 3429 01c9 0B       		.uleb128 0xb
 3430 01ca 49       		.uleb128 0x49
 3431 01cb 13       		.uleb128 0x13
 3432 01cc 1C       		.uleb128 0x1c
 3433 01cd 0B       		.uleb128 0xb
 3434 01ce 00       		.byte	0
 3435 01cf 00       		.byte	0
 3436 01d0 26       		.uleb128 0x26
 3437 01d1 0B       		.uleb128 0xb
 3438 01d2 01       		.byte	0x1
 3439 01d3 11       		.uleb128 0x11
 3440 01d4 01       		.uleb128 0x1
 3441 01d5 12       		.uleb128 0x12
 3442 01d6 06       		.uleb128 0x6
 3443 01d7 01       		.uleb128 0x1
 3444 01d8 13       		.uleb128 0x13
 3445 01d9 00       		.byte	0
 3446 01da 00       		.byte	0
 3447 01db 27       		.uleb128 0x27
 3448 01dc 898201   		.uleb128 0x4109
 3449 01df 01       		.byte	0x1
 3450 01e0 11       		.uleb128 0x11
 3451 01e1 01       		.uleb128 0x1
 3452 01e2 31       		.uleb128 0x31
 3453 01e3 13       		.uleb128 0x13
 3454 01e4 01       		.uleb128 0x1
 3455 01e5 13       		.uleb128 0x13
 3456 01e6 00       		.byte	0
 3457 01e7 00       		.byte	0
 3458 01e8 28       		.uleb128 0x28
 3459 01e9 8A8201   		.uleb128 0x410a
 3460 01ec 00       		.byte	0
 3461 01ed 02       		.uleb128 0x2
 3462 01ee 18       		.uleb128 0x18
ARM GAS  /tmp/ccNrqTVO.s 			page 62


 3463 01ef 9142     		.uleb128 0x2111
 3464 01f1 18       		.uleb128 0x18
 3465 01f2 00       		.byte	0
 3466 01f3 00       		.byte	0
 3467 01f4 29       		.uleb128 0x29
 3468 01f5 898201   		.uleb128 0x4109
 3469 01f8 00       		.byte	0
 3470 01f9 11       		.uleb128 0x11
 3471 01fa 01       		.uleb128 0x1
 3472 01fb 31       		.uleb128 0x31
 3473 01fc 13       		.uleb128 0x13
 3474 01fd 00       		.byte	0
 3475 01fe 00       		.byte	0
 3476 01ff 2A       		.uleb128 0x2a
 3477 0200 898201   		.uleb128 0x4109
 3478 0203 01       		.byte	0x1
 3479 0204 11       		.uleb128 0x11
 3480 0205 01       		.uleb128 0x1
 3481 0206 31       		.uleb128 0x31
 3482 0207 13       		.uleb128 0x13
 3483 0208 00       		.byte	0
 3484 0209 00       		.byte	0
 3485 020a 2B       		.uleb128 0x2b
 3486 020b 2E       		.uleb128 0x2e
 3487 020c 01       		.byte	0x1
 3488 020d 3F       		.uleb128 0x3f
 3489 020e 19       		.uleb128 0x19
 3490 020f 03       		.uleb128 0x3
 3491 0210 0E       		.uleb128 0xe
 3492 0211 3A       		.uleb128 0x3a
 3493 0212 0B       		.uleb128 0xb
 3494 0213 3B       		.uleb128 0x3b
 3495 0214 0B       		.uleb128 0xb
 3496 0215 49       		.uleb128 0x49
 3497 0216 13       		.uleb128 0x13
 3498 0217 11       		.uleb128 0x11
 3499 0218 01       		.uleb128 0x1
 3500 0219 12       		.uleb128 0x12
 3501 021a 06       		.uleb128 0x6
 3502 021b 40       		.uleb128 0x40
 3503 021c 18       		.uleb128 0x18
 3504 021d 9742     		.uleb128 0x2117
 3505 021f 19       		.uleb128 0x19
 3506 0220 01       		.uleb128 0x1
 3507 0221 13       		.uleb128 0x13
 3508 0222 00       		.byte	0
 3509 0223 00       		.byte	0
 3510 0224 2C       		.uleb128 0x2c
 3511 0225 34       		.uleb128 0x34
 3512 0226 00       		.byte	0
 3513 0227 03       		.uleb128 0x3
 3514 0228 0E       		.uleb128 0xe
 3515 0229 3A       		.uleb128 0x3a
 3516 022a 0B       		.uleb128 0xb
 3517 022b 3B       		.uleb128 0x3b
 3518 022c 05       		.uleb128 0x5
 3519 022d 49       		.uleb128 0x49
ARM GAS  /tmp/ccNrqTVO.s 			page 63


 3520 022e 13       		.uleb128 0x13
 3521 022f 3F       		.uleb128 0x3f
 3522 0230 19       		.uleb128 0x19
 3523 0231 3C       		.uleb128 0x3c
 3524 0232 19       		.uleb128 0x19
 3525 0233 00       		.byte	0
 3526 0234 00       		.byte	0
 3527 0235 2D       		.uleb128 0x2d
 3528 0236 34       		.uleb128 0x34
 3529 0237 00       		.byte	0
 3530 0238 03       		.uleb128 0x3
 3531 0239 08       		.uleb128 0x8
 3532 023a 3A       		.uleb128 0x3a
 3533 023b 0B       		.uleb128 0xb
 3534 023c 3B       		.uleb128 0x3b
 3535 023d 0B       		.uleb128 0xb
 3536 023e 49       		.uleb128 0x49
 3537 023f 13       		.uleb128 0x13
 3538 0240 3F       		.uleb128 0x3f
 3539 0241 19       		.uleb128 0x19
 3540 0242 3C       		.uleb128 0x3c
 3541 0243 19       		.uleb128 0x19
 3542 0244 00       		.byte	0
 3543 0245 00       		.byte	0
 3544 0246 2E       		.uleb128 0x2e
 3545 0247 2E       		.uleb128 0x2e
 3546 0248 01       		.byte	0x1
 3547 0249 3F       		.uleb128 0x3f
 3548 024a 19       		.uleb128 0x19
 3549 024b 03       		.uleb128 0x3
 3550 024c 0E       		.uleb128 0xe
 3551 024d 3A       		.uleb128 0x3a
 3552 024e 0B       		.uleb128 0xb
 3553 024f 3B       		.uleb128 0x3b
 3554 0250 0B       		.uleb128 0xb
 3555 0251 49       		.uleb128 0x49
 3556 0252 13       		.uleb128 0x13
 3557 0253 3C       		.uleb128 0x3c
 3558 0254 19       		.uleb128 0x19
 3559 0255 01       		.uleb128 0x1
 3560 0256 13       		.uleb128 0x13
 3561 0257 00       		.byte	0
 3562 0258 00       		.byte	0
 3563 0259 2F       		.uleb128 0x2f
 3564 025a 2E       		.uleb128 0x2e
 3565 025b 01       		.byte	0x1
 3566 025c 3F       		.uleb128 0x3f
 3567 025d 19       		.uleb128 0x19
 3568 025e 03       		.uleb128 0x3
 3569 025f 0E       		.uleb128 0xe
 3570 0260 3A       		.uleb128 0x3a
 3571 0261 0B       		.uleb128 0xb
 3572 0262 3B       		.uleb128 0x3b
 3573 0263 0B       		.uleb128 0xb
 3574 0264 6E       		.uleb128 0x6e
 3575 0265 0E       		.uleb128 0xe
 3576 0266 3C       		.uleb128 0x3c
ARM GAS  /tmp/ccNrqTVO.s 			page 64


 3577 0267 19       		.uleb128 0x19
 3578 0268 01       		.uleb128 0x1
 3579 0269 13       		.uleb128 0x13
 3580 026a 00       		.byte	0
 3581 026b 00       		.byte	0
 3582 026c 30       		.uleb128 0x30
 3583 026d 2E       		.uleb128 0x2e
 3584 026e 01       		.byte	0x1
 3585 026f 3F       		.uleb128 0x3f
 3586 0270 19       		.uleb128 0x19
 3587 0271 03       		.uleb128 0x3
 3588 0272 0E       		.uleb128 0xe
 3589 0273 3A       		.uleb128 0x3a
 3590 0274 0B       		.uleb128 0xb
 3591 0275 3B       		.uleb128 0x3b
 3592 0276 0B       		.uleb128 0xb
 3593 0277 6E       		.uleb128 0x6e
 3594 0278 0E       		.uleb128 0xe
 3595 0279 49       		.uleb128 0x49
 3596 027a 13       		.uleb128 0x13
 3597 027b 3C       		.uleb128 0x3c
 3598 027c 19       		.uleb128 0x19
 3599 027d 01       		.uleb128 0x1
 3600 027e 13       		.uleb128 0x13
 3601 027f 00       		.byte	0
 3602 0280 00       		.byte	0
 3603 0281 31       		.uleb128 0x31
 3604 0282 2E       		.uleb128 0x2e
 3605 0283 01       		.byte	0x1
 3606 0284 3F       		.uleb128 0x3f
 3607 0285 19       		.uleb128 0x19
 3608 0286 03       		.uleb128 0x3
 3609 0287 0E       		.uleb128 0xe
 3610 0288 3A       		.uleb128 0x3a
 3611 0289 0B       		.uleb128 0xb
 3612 028a 3B       		.uleb128 0x3b
 3613 028b 0B       		.uleb128 0xb
 3614 028c 3C       		.uleb128 0x3c
 3615 028d 19       		.uleb128 0x19
 3616 028e 01       		.uleb128 0x1
 3617 028f 13       		.uleb128 0x13
 3618 0290 00       		.byte	0
 3619 0291 00       		.byte	0
 3620 0292 32       		.uleb128 0x32
 3621 0293 18       		.uleb128 0x18
 3622 0294 00       		.byte	0
 3623 0295 00       		.byte	0
 3624 0296 00       		.byte	0
 3625 0297 33       		.uleb128 0x33
 3626 0298 2E       		.uleb128 0x2e
 3627 0299 01       		.byte	0x1
 3628 029a 3F       		.uleb128 0x3f
 3629 029b 19       		.uleb128 0x19
 3630 029c 03       		.uleb128 0x3
 3631 029d 0E       		.uleb128 0xe
 3632 029e 3A       		.uleb128 0x3a
 3633 029f 0B       		.uleb128 0xb
ARM GAS  /tmp/ccNrqTVO.s 			page 65


 3634 02a0 3B       		.uleb128 0x3b
 3635 02a1 05       		.uleb128 0x5
 3636 02a2 49       		.uleb128 0x49
 3637 02a3 13       		.uleb128 0x13
 3638 02a4 3C       		.uleb128 0x3c
 3639 02a5 19       		.uleb128 0x19
 3640 02a6 01       		.uleb128 0x1
 3641 02a7 13       		.uleb128 0x13
 3642 02a8 00       		.byte	0
 3643 02a9 00       		.byte	0
 3644 02aa 34       		.uleb128 0x34
 3645 02ab 2E       		.uleb128 0x2e
 3646 02ac 01       		.byte	0x1
 3647 02ad 3F       		.uleb128 0x3f
 3648 02ae 19       		.uleb128 0x19
 3649 02af 03       		.uleb128 0x3
 3650 02b0 0E       		.uleb128 0xe
 3651 02b1 3A       		.uleb128 0x3a
 3652 02b2 0B       		.uleb128 0xb
 3653 02b3 3B       		.uleb128 0x3b
 3654 02b4 05       		.uleb128 0x5
 3655 02b5 3C       		.uleb128 0x3c
 3656 02b6 19       		.uleb128 0x19
 3657 02b7 01       		.uleb128 0x1
 3658 02b8 13       		.uleb128 0x13
 3659 02b9 00       		.byte	0
 3660 02ba 00       		.byte	0
 3661 02bb 35       		.uleb128 0x35
 3662 02bc 2E       		.uleb128 0x2e
 3663 02bd 00       		.byte	0
 3664 02be 3F       		.uleb128 0x3f
 3665 02bf 19       		.uleb128 0x19
 3666 02c0 03       		.uleb128 0x3
 3667 02c1 0E       		.uleb128 0xe
 3668 02c2 3A       		.uleb128 0x3a
 3669 02c3 0B       		.uleb128 0xb
 3670 02c4 3B       		.uleb128 0x3b
 3671 02c5 0B       		.uleb128 0xb
 3672 02c6 3C       		.uleb128 0x3c
 3673 02c7 19       		.uleb128 0x19
 3674 02c8 00       		.byte	0
 3675 02c9 00       		.byte	0
 3676 02ca 36       		.uleb128 0x36
 3677 02cb 2E       		.uleb128 0x2e
 3678 02cc 00       		.byte	0
 3679 02cd 3F       		.uleb128 0x3f
 3680 02ce 19       		.uleb128 0x19
 3681 02cf 03       		.uleb128 0x3
 3682 02d0 0E       		.uleb128 0xe
 3683 02d1 3A       		.uleb128 0x3a
 3684 02d2 0B       		.uleb128 0xb
 3685 02d3 3B       		.uleb128 0x3b
 3686 02d4 0B       		.uleb128 0xb
 3687 02d5 6E       		.uleb128 0x6e
 3688 02d6 0E       		.uleb128 0xe
 3689 02d7 3C       		.uleb128 0x3c
 3690 02d8 19       		.uleb128 0x19
ARM GAS  /tmp/ccNrqTVO.s 			page 66


 3691 02d9 00       		.byte	0
 3692 02da 00       		.byte	0
 3693 02db 37       		.uleb128 0x37
 3694 02dc 2E       		.uleb128 0x2e
 3695 02dd 01       		.byte	0x1
 3696 02de 3F       		.uleb128 0x3f
 3697 02df 19       		.uleb128 0x19
 3698 02e0 03       		.uleb128 0x3
 3699 02e1 0E       		.uleb128 0xe
 3700 02e2 3A       		.uleb128 0x3a
 3701 02e3 0B       		.uleb128 0xb
 3702 02e4 3B       		.uleb128 0x3b
 3703 02e5 05       		.uleb128 0x5
 3704 02e6 49       		.uleb128 0x49
 3705 02e7 13       		.uleb128 0x13
 3706 02e8 3C       		.uleb128 0x3c
 3707 02e9 19       		.uleb128 0x19
 3708 02ea 00       		.byte	0
 3709 02eb 00       		.byte	0
 3710 02ec 00       		.byte	0
 3711              		.section	.debug_loc,"",%progbits
 3712              	.Ldebug_loc0:
 3713              	.LLST0:
 3714 0000 00000000 		.4byte	.LVL0
 3715 0004 06000000 		.4byte	.LVL1
 3716 0008 0100     		.2byte	0x1
 3717 000a 50       		.byte	0x50
 3718 000b 06000000 		.4byte	.LVL1
 3719 000f 8C010000 		.4byte	.LFE37
 3720 0013 0400     		.2byte	0x4
 3721 0015 F3       		.byte	0xf3
 3722 0016 01       		.uleb128 0x1
 3723 0017 50       		.byte	0x50
 3724 0018 9F       		.byte	0x9f
 3725 0019 00000000 		.4byte	0
 3726 001d 00000000 		.4byte	0
 3727              	.LLST1:
 3728 0021 00000000 		.4byte	.LVL0
 3729 0025 06000000 		.4byte	.LVL1
 3730 0029 0200     		.2byte	0x2
 3731 002b 30       		.byte	0x30
 3732 002c 9F       		.byte	0x9f
 3733 002d 06000000 		.4byte	.LVL1
 3734 0031 28000000 		.4byte	.LVL5
 3735 0035 0100     		.2byte	0x1
 3736 0037 54       		.byte	0x54
 3737 0038 28000000 		.4byte	.LVL5
 3738 003c 32000000 		.4byte	.LVL6
 3739 0040 0300     		.2byte	0x3
 3740 0042 74       		.byte	0x74
 3741 0043 01       		.sleb128 1
 3742 0044 9F       		.byte	0x9f
 3743 0045 32000000 		.4byte	.LVL6
 3744 0049 34000000 		.4byte	.LVL7
 3745 004d 0100     		.2byte	0x1
 3746 004f 54       		.byte	0x54
 3747 0050 34000000 		.4byte	.LVL7
ARM GAS  /tmp/ccNrqTVO.s 			page 67


 3748 0054 38000000 		.4byte	.LVL8
 3749 0058 0300     		.2byte	0x3
 3750 005a 74       		.byte	0x74
 3751 005b 01       		.sleb128 1
 3752 005c 9F       		.byte	0x9f
 3753 005d 42000000 		.4byte	.LVL10
 3754 0061 8C010000 		.4byte	.LFE37
 3755 0065 0200     		.2byte	0x2
 3756 0067 30       		.byte	0x30
 3757 0068 9F       		.byte	0x9f
 3758 0069 00000000 		.4byte	0
 3759 006d 00000000 		.4byte	0
 3760              	.LLST2:
 3761 0071 86000000 		.4byte	.LVL19
 3762 0075 A9000000 		.4byte	.LVL21-1
 3763 0079 1300     		.2byte	0x13
 3764 007b 7D       		.byte	0x7d
 3765 007c 00       		.sleb128 0
 3766 007d 94       		.byte	0x94
 3767 007e 01       		.byte	0x1
 3768 007f 08       		.byte	0x8
 3769 0080 FF       		.byte	0xff
 3770 0081 1A       		.byte	0x1a
 3771 0082 38       		.byte	0x38
 3772 0083 24       		.byte	0x24
 3773 0084 91       		.byte	0x91
 3774 0085 D17E     		.sleb128 -175
 3775 0087 94       		.byte	0x94
 3776 0088 01       		.byte	0x1
 3777 0089 08       		.byte	0x8
 3778 008a FF       		.byte	0xff
 3779 008b 1A       		.byte	0x1a
 3780 008c 21       		.byte	0x21
 3781 008d 9F       		.byte	0x9f
 3782 008e 00000000 		.4byte	0
 3783 0092 00000000 		.4byte	0
 3784              	.LLST3:
 3785 0096 06000000 		.4byte	.LVL1
 3786 009a 5A000000 		.4byte	.LVL14
 3787 009e 0200     		.2byte	0x2
 3788 00a0 30       		.byte	0x30
 3789 00a1 9F       		.byte	0x9f
 3790 00a2 50010000 		.4byte	.LVL43
 3791 00a6 8C010000 		.4byte	.LFE37
 3792 00aa 0200     		.2byte	0x2
 3793 00ac 30       		.byte	0x30
 3794 00ad 9F       		.byte	0x9f
 3795 00ae 00000000 		.4byte	0
 3796 00b2 00000000 		.4byte	0
 3797              	.LLST4:
 3798 00b6 A6000000 		.4byte	.LVL20
 3799 00ba 4E010000 		.4byte	.LVL42
 3800 00be 0100     		.2byte	0x1
 3801 00c0 54       		.byte	0x54
 3802 00c1 00000000 		.4byte	0
 3803 00c5 00000000 		.4byte	0
 3804              	.LLST5:
ARM GAS  /tmp/ccNrqTVO.s 			page 68


 3805 00c9 14000000 		.4byte	.LVL3
 3806 00cd 3A000000 		.4byte	.LVL9
 3807 00d1 0100     		.2byte	0x1
 3808 00d3 50       		.byte	0x50
 3809 00d4 00000000 		.4byte	0
 3810 00d8 00000000 		.4byte	0
 3811              	.LLST6:
 3812 00dc 46000000 		.4byte	.LVL11
 3813 00e0 4E000000 		.4byte	.LVL12
 3814 00e4 0100     		.2byte	0x1
 3815 00e6 50       		.byte	0x50
 3816 00e7 50010000 		.4byte	.LVL43
 3817 00eb 8C010000 		.4byte	.LFE37
 3818 00ef 0100     		.2byte	0x1
 3819 00f1 50       		.byte	0x50
 3820 00f2 00000000 		.4byte	0
 3821 00f6 00000000 		.4byte	0
 3822              	.LLST7:
 3823 00fa 54000000 		.4byte	.LVL13
 3824 00fe 60000000 		.4byte	.LVL15
 3825 0102 0100     		.2byte	0x1
 3826 0104 50       		.byte	0x50
 3827 0105 60000000 		.4byte	.LVL15
 3828 0109 65000000 		.4byte	.LVL16-1
 3829 010d 0200     		.2byte	0x2
 3830 010f 74       		.byte	0x74
 3831 0110 00       		.sleb128 0
 3832 0111 66000000 		.4byte	.LVL16
 3833 0115 72000000 		.4byte	.LVL17
 3834 0119 0100     		.2byte	0x1
 3835 011b 50       		.byte	0x50
 3836 011c 72000000 		.4byte	.LVL17
 3837 0120 79000000 		.4byte	.LVL18-1
 3838 0124 0100     		.2byte	0x1
 3839 0126 53       		.byte	0x53
 3840 0127 00000000 		.4byte	0
 3841 012b 00000000 		.4byte	0
 3842              	.LLST8:
 3843 012f 00000000 		.4byte	.LVL44
 3844 0133 0A000000 		.4byte	.LVL45
 3845 0137 0100     		.2byte	0x1
 3846 0139 50       		.byte	0x50
 3847 013a 0A000000 		.4byte	.LVL45
 3848 013e 24000000 		.4byte	.LFE36
 3849 0142 0400     		.2byte	0x4
 3850 0144 F3       		.byte	0xf3
 3851 0145 01       		.uleb128 0x1
 3852 0146 50       		.byte	0x50
 3853 0147 9F       		.byte	0x9f
 3854 0148 00000000 		.4byte	0
 3855 014c 00000000 		.4byte	0
 3856              		.section	.debug_aranges,"",%progbits
 3857 0000 2C000000 		.4byte	0x2c
 3858 0004 0200     		.2byte	0x2
 3859 0006 00000000 		.4byte	.Ldebug_info0
 3860 000a 04       		.byte	0x4
 3861 000b 00       		.byte	0
ARM GAS  /tmp/ccNrqTVO.s 			page 69


 3862 000c 0000     		.2byte	0
 3863 000e 0000     		.2byte	0
 3864 0010 00000000 		.4byte	.LFB37
 3865 0014 8C010000 		.4byte	.LFE37-.LFB37
 3866 0018 00000000 		.4byte	.LFB36
 3867 001c 24000000 		.4byte	.LFE36-.LFB36
 3868 0020 00000000 		.4byte	.LFB38
 3869 0024 60000000 		.4byte	.LFE38-.LFB38
 3870 0028 00000000 		.4byte	0
 3871 002c 00000000 		.4byte	0
 3872              		.section	.debug_ranges,"",%progbits
 3873              	.Ldebug_ranges0:
 3874 0000 02000000 		.4byte	.LBB2
 3875 0004 04000000 		.4byte	.LBE2
 3876 0008 06000000 		.4byte	.LBB8
 3877 000c 8C010000 		.4byte	.LBE8
 3878 0010 00000000 		.4byte	0
 3879 0014 00000000 		.4byte	0
 3880 0018 00000000 		.4byte	.LFB37
 3881 001c 8C010000 		.4byte	.LFE37
 3882 0020 00000000 		.4byte	.LFB36
 3883 0024 24000000 		.4byte	.LFE36
 3884 0028 00000000 		.4byte	.LFB38
 3885 002c 60000000 		.4byte	.LFE38
 3886 0030 00000000 		.4byte	0
 3887 0034 00000000 		.4byte	0
 3888              		.section	.debug_line,"",%progbits
 3889              	.Ldebug_line0:
 3890 0000 EF030000 		.section	.debug_str,"MS",%progbits,1
 3890      02004B03 
 3890      00000201 
 3890      FB0E0D00 
 3890      01010101 
 3891              	.LASF56:
 3892 0000 50494F5F 		.ascii	"PIO_IFSCSR\000"
 3892      49465343 
 3892      535200
 3893              	.LASF220:
 3894 000b 54687265 		.ascii	"Thread1\000"
 3894      61643100 
 3895              	.LASF122:
 3896 0013 73697A65 		.ascii	"size_t\000"
 3896      5F7400
 3897              	.LASF23:
 3898 001a 73697A65 		.ascii	"sizetype\000"
 3898      74797065 
 3898      00
 3899              	.LASF130:
 3900 0023 73797374 		.ascii	"systime_t\000"
 3900      696D655F 
 3900      7400
 3901              	.LASF146:
 3902 002d 705F7469 		.ascii	"p_time\000"
 3902      6D6500
 3903              	.LASF139:
 3904 0034 705F6374 		.ascii	"p_ctx\000"
 3904      7800
ARM GAS  /tmp/ccNrqTVO.s 			page 70


 3905              	.LASF127:
 3906 003a 74707269 		.ascii	"tprio_t\000"
 3906      6F5F7400 
 3907              	.LASF148:
 3908 0042 705F6D73 		.ascii	"p_msgqueue\000"
 3908      67717565 
 3908      756500
 3909              	.LASF17:
 3910 004d 696E7433 		.ascii	"int32_t\000"
 3910      325F7400 
 3911              	.LASF209:
 3912 0055 53657269 		.ascii	"SerialConfig\000"
 3912      616C436F 
 3912      6E666967 
 3912      00
 3913              	.LASF189:
 3914 0062 77726974 		.ascii	"writet\000"
 3914      657400
 3915              	.LASF68:
 3916 0069 50494F5F 		.ascii	"PIO_AIMMR\000"
 3916      41494D4D 
 3916      5200
 3917              	.LASF105:
 3918 0073 55415254 		.ascii	"UART_IDR\000"
 3918      5F494452 
 3918      00
 3919              	.LASF21:
 3920 007c 576F5265 		.ascii	"WoReg\000"
 3920      6700
 3921              	.LASF79:
 3922 0082 50494F5F 		.ascii	"PIO_WPMR\000"
 3922      57504D52 
 3922      00
 3923              	.LASF185:
 3924 008b 77726974 		.ascii	"write\000"
 3924      6500
 3925              	.LASF226:
 3926 0091 73747273 		.ascii	"strstr\000"
 3926      747200
 3927              	.LASF208:
 3928 0098 73635F6D 		.ascii	"sc_mr\000"
 3928      7200
 3929              	.LASF215:
 3930 009e 4D505562 		.ascii	"MPUbuffer\000"
 3930      75666665 
 3930      7200
 3931              	.LASF214:
 3932 00a8 4750524D 		.ascii	"GPRMC\000"
 3932      4300
 3933              	.LASF107:
 3934 00ae 55415254 		.ascii	"UART_SR\000"
 3934      5F535200 
 3935              	.LASF88:
 3936 00b6 50494F5F 		.ascii	"PIO_PCISR\000"
 3936      50434953 
 3936      5200
 3937              	.LASF104:
ARM GAS  /tmp/ccNrqTVO.s 			page 71


 3938 00c0 55415254 		.ascii	"UART_IER\000"
 3938      5F494552 
 3938      00
 3939              	.LASF92:
 3940 00c9 50494F5F 		.ascii	"PIO_TPR\000"
 3940      54505200 
 3941              	.LASF119:
 3942 00d1 55415254 		.ascii	"UART_PTCR\000"
 3942      5F505443 
 3942      5200
 3943              	.LASF57:
 3944 00db 50494F5F 		.ascii	"PIO_SCDR\000"
 3944      53434452 
 3944      00
 3945              	.LASF133:
 3946 00e4 65786974 		.ascii	"exitcode\000"
 3946      636F6465 
 3946      00
 3947              	.LASF2:
 3948 00ed 5F5F7569 		.ascii	"__uint8_t\000"
 3948      6E74385F 
 3948      7400
 3949              	.LASF177:
 3950 00f7 715F746F 		.ascii	"q_top\000"
 3950      7000
 3951              	.LASF63:
 3952 00fd 50494F5F 		.ascii	"PIO_OWDR\000"
 3952      4F574452 
 3952      00
 3953              	.LASF190:
 3954 0106 72656164 		.ascii	"readt\000"
 3954      7400
 3955              	.LASF240:
 3956 010c 5F5A3133 		.ascii	"_Z13I2CWriteByteshhh\000"
 3956      49324357 
 3956      72697465 
 3956      42797465 
 3956      73686868 
 3957              	.LASF176:
 3958 0121 715F6275 		.ascii	"q_buffer\000"
 3958      66666572 
 3958      00
 3959              	.LASF180:
 3960 012a 715F6E6F 		.ascii	"q_notify\000"
 3960      74696679 
 3960      00
 3961              	.LASF58:
 3962 0133 50494F5F 		.ascii	"PIO_PPDDR\000"
 3962      50504444 
 3962      5200
 3963              	.LASF140:
 3964 013d 705F6E65 		.ascii	"p_newer\000"
 3964      77657200 
 3965              	.LASF8:
 3966 0145 6C6F6E67 		.ascii	"long int\000"
 3966      20696E74 
 3966      00
ARM GAS  /tmp/ccNrqTVO.s 			page 72


 3967              	.LASF136:
 3968 014e 705F6E65 		.ascii	"p_next\000"
 3968      787400
 3969              	.LASF179:
 3970 0155 715F7264 		.ascii	"q_rdptr\000"
 3970      70747200 
 3971              	.LASF137:
 3972 015d 705F7072 		.ascii	"p_prev\000"
 3972      657600
 3973              	.LASF62:
 3974 0164 50494F5F 		.ascii	"PIO_OWER\000"
 3974      4F574552 
 3974      00
 3975              	.LASF34:
 3976 016d 50494F5F 		.ascii	"PIO_IFSR\000"
 3976      49465352 
 3976      00
 3977              	.LASF52:
 3978 0176 50494F5F 		.ascii	"PIO_ABCDSR\000"
 3978      41424344 
 3978      535200
 3979              	.LASF125:
 3980 0181 74737461 		.ascii	"tstate_t\000"
 3980      74655F74 
 3980      00
 3981              	.LASF239:
 3982 018a 6D61696E 		.ascii	"main\000"
 3982      00
 3983              	.LASF151:
 3984 018f 705F6D74 		.ascii	"p_mtxlist\000"
 3984      786C6973 
 3984      7400
 3985              	.LASF204:
 3986 0199 6F717565 		.ascii	"oqueue\000"
 3986      756500
 3987              	.LASF158:
 3988 01a0 72656761 		.ascii	"regarm_t\000"
 3988      726D5F74 
 3988      00
 3989              	.LASF59:
 3990 01a9 50494F5F 		.ascii	"PIO_PPDER\000"
 3990      50504445 
 3990      5200
 3991              	.LASF70:
 3992 01b3 50494F5F 		.ascii	"PIO_ESR\000"
 3992      45535200 
 3993              	.LASF216:
 3994 01bb 4D505553 		.ascii	"MPUStatus\000"
 3994      74617475 
 3994      7300
 3995              	.LASF30:
 3996 01c5 50494F5F 		.ascii	"PIO_OSR\000"
 3996      4F535200 
 3997              	.LASF235:
 3998 01cd 6D61696E 		.ascii	"main.cpp\000"
 3998      2E637070 
 3998      00
ARM GAS  /tmp/ccNrqTVO.s 			page 73


 3999              	.LASF0:
 4000 01d6 7369676E 		.ascii	"signed char\000"
 4000      65642063 
 4000      68617200 
 4001              	.LASF135:
 4002 01e2 65776D61 		.ascii	"ewmask\000"
 4002      736B00
 4003              	.LASF14:
 4004 01e9 75696E74 		.ascii	"uint8_t\000"
 4004      385F7400 
 4005              	.LASF129:
 4006 01f1 6576656E 		.ascii	"eventmask_t\000"
 4006      746D6173 
 4006      6B5F7400 
 4007              	.LASF160:
 4008 01fd 636F6E74 		.ascii	"context\000"
 4008      65787400 
 4009              	.LASF94:
 4010 0205 50494F5F 		.ascii	"PIO_RNPR\000"
 4010      524E5052 
 4010      00
 4011              	.LASF1:
 4012 020e 756E7369 		.ascii	"unsigned char\000"
 4012      676E6564 
 4012      20636861 
 4012      7200
 4013              	.LASF48:
 4014 021c 50494F5F 		.ascii	"PIO_PUDR\000"
 4014      50554452 
 4014      00
 4015              	.LASF114:
 4016 0225 55415254 		.ascii	"UART_TCR\000"
 4016      5F544352 
 4016      00
 4017              	.LASF96:
 4018 022e 50494F5F 		.ascii	"PIO_TNPR\000"
 4018      544E5052 
 4018      00
 4019              	.LASF147:
 4020 0237 705F7761 		.ascii	"p_waiting\000"
 4020      6974696E 
 4020      6700
 4021              	.LASF195:
 4022 0241 53445F55 		.ascii	"SD_UNINIT\000"
 4022      4E494E49 
 4022      5400
 4023              	.LASF80:
 4024 024b 50494F5F 		.ascii	"PIO_WPSR\000"
 4024      57505352 
 4024      00
 4025              	.LASF111:
 4026 0254 55415254 		.ascii	"UART_RPR\000"
 4026      5F525052 
 4026      00
 4027              	.LASF155:
 4028 025d 31325468 		.ascii	"12ThreadsQueue\000"
 4028      72656164 
ARM GAS  /tmp/ccNrqTVO.s 			page 74


 4028      73517565 
 4028      756500
 4029              	.LASF49:
 4030 026c 50494F5F 		.ascii	"PIO_PUER\000"
 4030      50554552 
 4030      00
 4031              	.LASF171:
 4032 0275 63686172 		.ascii	"char\000"
 4032      00
 4033              	.LASF91:
 4034 027a 50494F5F 		.ascii	"PIO_RCR\000"
 4034      52435200 
 4035              	.LASF73:
 4036 0282 52657365 		.ascii	"Reserved10\000"
 4036      72766564 
 4036      313000
 4037              	.LASF77:
 4038 028d 52657365 		.ascii	"Reserved11\000"
 4038      72766564 
 4038      313100
 4039              	.LASF81:
 4040 0298 52657365 		.ascii	"Reserved12\000"
 4040      72766564 
 4040      313200
 4041              	.LASF83:
 4042 02a3 52657365 		.ascii	"Reserved13\000"
 4042      72766564 
 4042      313300
 4043              	.LASF138:
 4044 02ae 705F7072 		.ascii	"p_prio\000"
 4044      696F00
 4045              	.LASF5:
 4046 02b5 5F5F7569 		.ascii	"__uint16_t\000"
 4046      6E743136 
 4046      5F7400
 4047              	.LASF173:
 4048 02c0 47656E65 		.ascii	"GenericQueue\000"
 4048      72696351 
 4048      75657565 
 4048      00
 4049              	.LASF45:
 4050 02cd 50494F5F 		.ascii	"PIO_MDDR\000"
 4050      4D444452 
 4050      00
 4051              	.LASF134:
 4052 02d6 77746F62 		.ascii	"wtobjp\000"
 4052      6A7000
 4053              	.LASF39:
 4054 02dd 50494F5F 		.ascii	"PIO_PDSR\000"
 4054      50445352 
 4054      00
 4055              	.LASF201:
 4056 02e6 666C6167 		.ascii	"flags\000"
 4056      7300
 4057              	.LASF78:
 4058 02ec 50494F5F 		.ascii	"PIO_LOCKSR\000"
 4058      4C4F434B 
ARM GAS  /tmp/ccNrqTVO.s 			page 75


 4058      535200
 4059              	.LASF183:
 4060 02f7 4F757470 		.ascii	"OutputQueue\000"
 4060      75745175 
 4060      65756500 
 4061              	.LASF74:
 4062 0303 50494F5F 		.ascii	"PIO_FELLSR\000"
 4062      46454C4C 
 4062      535200
 4063              	.LASF44:
 4064 030e 50494F5F 		.ascii	"PIO_MDER\000"
 4064      4D444552 
 4064      00
 4065              	.LASF25:
 4066 0317 50494F5F 		.ascii	"PIO_PDR\000"
 4066      50445200 
 4067              	.LASF187:
 4068 031f 70757477 		.ascii	"putwouldblock\000"
 4068      6F756C64 
 4068      626C6F63 
 4068      6B00
 4069              	.LASF194:
 4070 032d 696F706F 		.ascii	"ioportmask_t\000"
 4070      72746D61 
 4070      736B5F74 
 4070      00
 4071              	.LASF115:
 4072 033a 55415254 		.ascii	"UART_RNPR\000"
 4072      5F524E50 
 4072      5200
 4073              	.LASF191:
 4074 0344 31314261 		.ascii	"11BaseChannel\000"
 4074      73654368 
 4074      616E6E65 
 4074      6C00
 4075              	.LASF106:
 4076 0352 55415254 		.ascii	"UART_IMR\000"
 4076      5F494D52 
 4076      00
 4077              	.LASF121:
 4078 035b 55617274 		.ascii	"Uart\000"
 4078      00
 4079              	.LASF117:
 4080 0360 55415254 		.ascii	"UART_TNPR\000"
 4080      5F544E50 
 4080      5200
 4081              	.LASF228:
 4082 036a 63687072 		.ascii	"chprintf\000"
 4082      696E7466 
 4082      00
 4083              	.LASF229:
 4084 0373 63685468 		.ascii	"chThdSleep\000"
 4084      64536C65 
 4084      657000
 4085              	.LASF72:
 4086 037e 50494F5F 		.ascii	"PIO_ELSR\000"
 4086      454C5352 
ARM GAS  /tmp/ccNrqTVO.s 			page 76


 4086      00
 4087              	.LASF212:
 4088 0387 55617274 		.ascii	"UartBuffer\000"
 4088      42756666 
 4088      657200
 4089              	.LASF159:
 4090 0392 696E7463 		.ascii	"intctx\000"
 4090      747800
 4091              	.LASF150:
 4092 0399 705F6570 		.ascii	"p_epending\000"
 4092      656E6469 
 4092      6E6700
 4093              	.LASF206:
 4094 03a4 31325365 		.ascii	"12SerialConfig\000"
 4094      7269616C 
 4094      436F6E66 
 4094      696700
 4095              	.LASF26:
 4096 03b3 50494F5F 		.ascii	"PIO_PSR\000"
 4096      50535200 
 4097              	.LASF109:
 4098 03bb 55415254 		.ascii	"UART_THR\000"
 4098      5F544852 
 4098      00
 4099              	.LASF170:
 4100 03c4 65735F6E 		.ascii	"es_next\000"
 4100      65787400 
 4101              	.LASF175:
 4102 03cc 715F636F 		.ascii	"q_counter\000"
 4102      756E7465 
 4102      7200
 4103              	.LASF234:
 4104 03d6 474E5520 		.ascii	"GNU C++ 4.9.3 20150529 (release) [ARM/embedded-4_9-"
 4104      432B2B20 
 4104      342E392E 
 4104      33203230 
 4104      31353035 
 4105 0409 6272616E 		.ascii	"branch revision 227977] -mcpu=cortex-m3 -mno-thumb-"
 4105      63682072 
 4105      65766973 
 4105      696F6E20 
 4105      32323739 
 4106 043c 696E7465 		.ascii	"interwork -mthumb -ggdb -O2 -fomit-frame-pointer -f"
 4106      72776F72 
 4106      6B202D6D 
 4106      7468756D 
 4106      62202D67 
 4107 046f 616C6967 		.ascii	"align-functions=16 -ffunction-sections -fdata-secti"
 4107      6E2D6675 
 4107      6E637469 
 4107      6F6E733D 
 4107      3136202D 
 4108 04a2 6F6E7320 		.ascii	"ons -fno-common -fno-rtti\000"
 4108      2D666E6F 
 4108      2D636F6D 
 4108      6D6F6E20 
 4108      2D666E6F 
ARM GAS  /tmp/ccNrqTVO.s 			page 77


 4109              	.LASF169:
 4110 04bc 4576656E 		.ascii	"EventSource\000"
 4110      74536F75 
 4110      72636500 
 4111              	.LASF10:
 4112 04c8 6C6F6E67 		.ascii	"long unsigned int\000"
 4112      20756E73 
 4112      69676E65 
 4112      6420696E 
 4112      7400
 4113              	.LASF166:
 4114 04da 656C5F6E 		.ascii	"el_next\000"
 4114      65787400 
 4115              	.LASF100:
 4116 04e2 3350696F 		.ascii	"3Pio\000"
 4116      00
 4117              	.LASF178:
 4118 04e7 715F7772 		.ascii	"q_wrptr\000"
 4118      70747200 
 4119              	.LASF217:
 4120 04ef 62797465 		.ascii	"byte_u8\000"
 4120      5F753800 
 4121              	.LASF210:
 4122 04f7 53657269 		.ascii	"SerialDriverVMT\000"
 4122      616C4472 
 4122      69766572 
 4122      564D5400 
 4123              	.LASF232:
 4124 0507 73645374 		.ascii	"sdStart\000"
 4124      61727400 
 4125              	.LASF37:
 4126 050f 50494F5F 		.ascii	"PIO_CODR\000"
 4126      434F4452 
 4126      00
 4127              	.LASF233:
 4128 0518 63685468 		.ascii	"chThdCreateStatic\000"
 4128      64437265 
 4128      61746553 
 4128      74617469 
 4128      6300
 4129              	.LASF230:
 4130 052a 68616C49 		.ascii	"halInit\000"
 4130      6E697400 
 4131              	.LASF223:
 4132 0532 41726561 		.ascii	"AreaGPS\000"
 4132      47505300 
 4133              	.LASF9:
 4134 053a 5F5F7569 		.ascii	"__uint32_t\000"
 4134      6E743332 
 4134      5F7400
 4135              	.LASF41:
 4136 0545 50494F5F 		.ascii	"PIO_IDR\000"
 4136      49445200 
 4137              	.LASF161:
 4138 054d 4D757465 		.ascii	"Mutex\000"
 4138      7800
 4139              	.LASF237:
ARM GAS  /tmp/ccNrqTVO.s 			page 78


 4140 0553 39736473 		.ascii	"9sdstate_t\000"
 4140      74617465 
 4140      5F7400
 4141              	.LASF11:
 4142 055e 6C6F6E67 		.ascii	"long long int\000"
 4142      206C6F6E 
 4142      6720696E 
 4142      7400
 4143              	.LASF162:
 4144 056c 6D5F7175 		.ascii	"m_queue\000"
 4144      65756500 
 4145              	.LASF124:
 4146 0574 746D6F64 		.ascii	"tmode_t\000"
 4146      655F7400 
 4147              	.LASF54:
 4148 057c 50494F5F 		.ascii	"PIO_IFSCDR\000"
 4148      49465343 
 4148      445200
 4149              	.LASF99:
 4150 0587 50494F5F 		.ascii	"PIO_PTSR\000"
 4150      50545352 
 4150      00
 4151              	.LASF40:
 4152 0590 50494F5F 		.ascii	"PIO_IER\000"
 4152      49455200 
 4153              	.LASF89:
 4154 0598 50494F5F 		.ascii	"PIO_PCRHR\000"
 4154      50435248 
 4154      5200
 4155              	.LASF221:
 4156 05a2 49544D5F 		.ascii	"ITM_RxBuffer\000"
 4156      52784275 
 4156      66666572 
 4156      00
 4157              	.LASF172:
 4158 05af 7466756E 		.ascii	"tfunc_t\000"
 4158      635F7400 
 4159              	.LASF36:
 4160 05b7 50494F5F 		.ascii	"PIO_SODR\000"
 4160      534F4452 
 4160      00
 4161              	.LASF55:
 4162 05c0 50494F5F 		.ascii	"PIO_IFSCER\000"
 4162      49465343 
 4162      455200
 4163              	.LASF181:
 4164 05cb 716E6F74 		.ascii	"qnotify_t\000"
 4164      6966795F 
 4164      7400
 4165              	.LASF102:
 4166 05d5 55415254 		.ascii	"UART_CR\000"
 4166      5F435200 
 4167              	.LASF200:
 4168 05dd 6576656E 		.ascii	"event\000"
 4168      7400
 4169              	.LASF144:
 4170 05e3 705F666C 		.ascii	"p_flags\000"
ARM GAS  /tmp/ccNrqTVO.s 			page 79


 4170      61677300 
 4171              	.LASF186:
 4172 05eb 72656164 		.ascii	"read\000"
 4172      00
 4173              	.LASF13:
 4174 05f0 756E7369 		.ascii	"unsigned int\000"
 4174      676E6564 
 4174      20696E74 
 4174      00
 4175              	.LASF153:
 4176 05fd 705F6D70 		.ascii	"p_mpool\000"
 4176      6F6F6C00 
 4177              	.LASF227:
 4178 0605 63684951 		.ascii	"chIQGetTimeout\000"
 4178      47657454 
 4178      696D656F 
 4178      757400
 4179              	.LASF145:
 4180 0614 705F7265 		.ascii	"p_refs\000"
 4180      667300
 4181              	.LASF86:
 4182 061b 50494F5F 		.ascii	"PIO_PCIDR\000"
 4182      50434944 
 4182      5200
 4183              	.LASF71:
 4184 0625 50494F5F 		.ascii	"PIO_LSR\000"
 4184      4C535200 
 4185              	.LASF207:
 4186 062d 73635F73 		.ascii	"sc_speed\000"
 4186      70656564 
 4186      00
 4187              	.LASF157:
 4188 0636 54687265 		.ascii	"ThreadsList\000"
 4188      6164734C 
 4188      69737400 
 4189              	.LASF236:
 4190 0642 2F686F6D 		.ascii	"/home/david/Desktop/Embebidos/StampRepo\000"
 4190      652F6461 
 4190      7669642F 
 4190      4465736B 
 4190      746F702F 
 4191              	.LASF193:
 4192 066a 696F666C 		.ascii	"ioflags_t\000"
 4192      6167735F 
 4192      7400
 4193              	.LASF85:
 4194 0674 50494F5F 		.ascii	"PIO_PCIER\000"
 4194      50434945 
 4194      5200
 4195              	.LASF64:
 4196 067e 50494F5F 		.ascii	"PIO_OWSR\000"
 4196      4F575352 
 4196      00
 4197              	.LASF120:
 4198 0687 55415254 		.ascii	"UART_PTSR\000"
 4198      5F505453 
 4198      5200
ARM GAS  /tmp/ccNrqTVO.s 			page 80


 4199              	.LASF60:
 4200 0691 50494F5F 		.ascii	"PIO_PPDSR\000"
 4200      50504453 
 4200      5200
 4201              	.LASF244:
 4202 069b 5F5A3749 		.ascii	"_Z7I2CInitv\000"
 4202      3243496E 
 4202      69747600 
 4203              	.LASF238:
 4204 06a7 47504747 		.ascii	"GPGGA\000"
 4204      4100
 4205              	.LASF152:
 4206 06ad 705F7265 		.ascii	"p_realprio\000"
 4206      616C7072 
 4206      696F00
 4207              	.LASF188:
 4208 06b8 67657477 		.ascii	"getwouldblock\000"
 4208      6F756C64 
 4208      626C6F63 
 4208      6B00
 4209              	.LASF113:
 4210 06c6 55415254 		.ascii	"UART_TPR\000"
 4210      5F545052 
 4210      00
 4211              	.LASF33:
 4212 06cf 50494F5F 		.ascii	"PIO_IFDR\000"
 4212      49464452 
 4212      00
 4213              	.LASF203:
 4214 06d8 69717565 		.ascii	"iqueue\000"
 4214      756500
 4215              	.LASF93:
 4216 06df 50494F5F 		.ascii	"PIO_TCR\000"
 4216      54435200 
 4217              	.LASF241:
 4218 06e7 49324352 		.ascii	"I2CReadBytes\000"
 4218      65616442 
 4218      79746573 
 4218      00
 4219              	.LASF12:
 4220 06f4 6C6F6E67 		.ascii	"long long unsigned int\000"
 4220      206C6F6E 
 4220      6720756E 
 4220      7369676E 
 4220      65642069 
 4221              	.LASF141:
 4222 070b 705F6F6C 		.ascii	"p_older\000"
 4222      64657200 
 4223              	.LASF16:
 4224 0713 75696E74 		.ascii	"uint16_t\000"
 4224      31365F74 
 4224      00
 4225              	.LASF90:
 4226 071c 50494F5F 		.ascii	"PIO_RPR\000"
 4226      52505200 
 4227              	.LASF29:
 4228 0724 50494F5F 		.ascii	"PIO_ODR\000"
ARM GAS  /tmp/ccNrqTVO.s 			page 81


 4228      4F445200 
 4229              	.LASF128:
 4230 072c 6D73675F 		.ascii	"msg_t\000"
 4230      7400
 4231              	.LASF32:
 4232 0732 50494F5F 		.ascii	"PIO_IFER\000"
 4232      49464552 
 4232      00
 4233              	.LASF50:
 4234 073b 50494F5F 		.ascii	"PIO_PUSR\000"
 4234      50555352 
 4234      00
 4235              	.LASF163:
 4236 0744 6D5F6F77 		.ascii	"m_owner\000"
 4236      6E657200 
 4237              	.LASF28:
 4238 074c 50494F5F 		.ascii	"PIO_OER\000"
 4238      4F455200 
 4239              	.LASF67:
 4240 0754 50494F5F 		.ascii	"PIO_AIMDR\000"
 4240      41494D44 
 4240      5200
 4241              	.LASF3:
 4242 075e 5F5F696E 		.ascii	"__int16_t\000"
 4242      7431365F 
 4242      7400
 4243              	.LASF101:
 4244 0768 34556172 		.ascii	"4Uart\000"
 4244      7400
 4245              	.LASF199:
 4246 076e 53657269 		.ascii	"SerialDriver\000"
 4246      616C4472 
 4246      69766572 
 4246      00
 4247              	.LASF76:
 4248 077b 50494F5F 		.ascii	"PIO_FRLHSR\000"
 4248      46524C48 
 4248      535200
 4249              	.LASF110:
 4250 0786 55415254 		.ascii	"UART_BRGR\000"
 4250      5F425247 
 4250      5200
 4251              	.LASF174:
 4252 0790 715F7761 		.ascii	"q_waiting\000"
 4252      6974696E 
 4252      6700
 4253              	.LASF27:
 4254 079a 52657365 		.ascii	"Reserved1\000"
 4254      72766564 
 4254      3100
 4255              	.LASF31:
 4256 07a4 52657365 		.ascii	"Reserved2\000"
 4256      72766564 
 4256      3200
 4257              	.LASF35:
 4258 07ae 52657365 		.ascii	"Reserved3\000"
 4258      72766564 
ARM GAS  /tmp/ccNrqTVO.s 			page 82


 4258      3300
 4259              	.LASF47:
 4260 07b8 52657365 		.ascii	"Reserved4\000"
 4260      72766564 
 4260      3400
 4261              	.LASF51:
 4262 07c2 52657365 		.ascii	"Reserved5\000"
 4262      72766564 
 4262      3500
 4263              	.LASF53:
 4264 07cc 52657365 		.ascii	"Reserved6\000"
 4264      72766564 
 4264      3600
 4265              	.LASF61:
 4266 07d6 52657365 		.ascii	"Reserved7\000"
 4266      72766564 
 4266      3700
 4267              	.LASF65:
 4268 07e0 52657365 		.ascii	"Reserved8\000"
 4268      72766564 
 4268      3800
 4269              	.LASF69:
 4270 07ea 52657365 		.ascii	"Reserved9\000"
 4270      72766564 
 4270      3900
 4271              	.LASF66:
 4272 07f4 50494F5F 		.ascii	"PIO_AIMER\000"
 4272      41494D45 
 4272      5200
 4273              	.LASF198:
 4274 07fe 73647374 		.ascii	"sdstate_t\000"
 4274      6174655F 
 4274      7400
 4275              	.LASF46:
 4276 0808 50494F5F 		.ascii	"PIO_MDSR\000"
 4276      4D445352 
 4276      00
 4277              	.LASF42:
 4278 0811 50494F5F 		.ascii	"PIO_IMR\000"
 4278      494D5200 
 4279              	.LASF197:
 4280 0819 53445F52 		.ascii	"SD_READY\000"
 4280      45414459 
 4280      00
 4281              	.LASF38:
 4282 0822 50494F5F 		.ascii	"PIO_ODSR\000"
 4282      4F445352 
 4282      00
 4283              	.LASF95:
 4284 082b 50494F5F 		.ascii	"PIO_RNCR\000"
 4284      524E4352 
 4284      00
 4285              	.LASF242:
 4286 0834 5F5A3132 		.ascii	"_Z12I2CReadByteshhPhh\000"
 4286      49324352 
 4286      65616442 
 4286      79746573 
ARM GAS  /tmp/ccNrqTVO.s 			page 83


 4286      68685068 
 4287              	.LASF218:
 4288 084a 4750524D 		.ascii	"GPRMC_c\000"
 4288      435F6300 
 4289              	.LASF97:
 4290 0852 50494F5F 		.ascii	"PIO_TNCR\000"
 4290      544E4352 
 4290      00
 4291              	.LASF224:
 4292 085b 73747274 		.ascii	"strtok\000"
 4292      6F6B00
 4293              	.LASF82:
 4294 0862 50494F5F 		.ascii	"PIO_SCHMITT\000"
 4294      5343484D 
 4294      49545400 
 4295              	.LASF4:
 4296 086e 73686F72 		.ascii	"short int\000"
 4296      7420696E 
 4296      7400
 4297              	.LASF20:
 4298 0878 526F5265 		.ascii	"RoReg\000"
 4298      6700
 4299              	.LASF112:
 4300 087e 55415254 		.ascii	"UART_RCR\000"
 4300      5F524352 
 4300      00
 4301              	.LASF243:
 4302 0887 49324349 		.ascii	"I2CInit\000"
 4302      6E697400 
 4303              	.LASF205:
 4304 088f 75617274 		.ascii	"uart\000"
 4304      00
 4305              	.LASF15:
 4306 0894 696E7431 		.ascii	"int16_t\000"
 4306      365F7400 
 4307              	.LASF202:
 4308 089c 73746174 		.ascii	"state\000"
 4308      6500
 4309              	.LASF123:
 4310 08a2 626F6F6C 		.ascii	"bool_t\000"
 4310      5F7400
 4311              	.LASF131:
 4312 08a9 54687265 		.ascii	"Thread\000"
 4312      616400
 4313              	.LASF22:
 4314 08b0 52775265 		.ascii	"RwReg\000"
 4314      6700
 4315              	.LASF211:
 4316 08b6 67657466 		.ascii	"getflags\000"
 4316      6C616773 
 4316      00
 4317              	.LASF103:
 4318 08bf 55415254 		.ascii	"UART_MR\000"
 4318      5F4D5200 
 4319              	.LASF87:
 4320 08c7 50494F5F 		.ascii	"PIO_PCIMR\000"
 4320      5043494D 
ARM GAS  /tmp/ccNrqTVO.s 			page 84


 4320      5200
 4321              	.LASF126:
 4322 08d1 74726566 		.ascii	"trefs_t\000"
 4322      735F7400 
 4323              	.LASF165:
 4324 08d9 4576656E 		.ascii	"EventListener\000"
 4324      744C6973 
 4324      74656E65 
 4324      7200
 4325              	.LASF84:
 4326 08e7 50494F5F 		.ascii	"PIO_PCMR\000"
 4326      50434D52 
 4326      00
 4327              	.LASF231:
 4328 08f0 63685379 		.ascii	"chSysInit\000"
 4328      73496E69 
 4328      7400
 4329              	.LASF18:
 4330 08fa 75696E74 		.ascii	"uint32_t\000"
 4330      33325F74 
 4330      00
 4331              	.LASF213:
 4332 0903 55617274 		.ascii	"UartBufferPtr\000"
 4332      42756666 
 4332      65725074 
 4332      7200
 4333              	.LASF219:
 4334 0911 47505354 		.ascii	"GPSThread\000"
 4334      68726561 
 4334      6400
 4335              	.LASF116:
 4336 091b 55415254 		.ascii	"UART_RNCR\000"
 4336      5F524E43 
 4336      5200
 4337              	.LASF154:
 4338 0925 54687265 		.ascii	"ThreadsQueue\000"
 4338      61647351 
 4338      75657565 
 4338      00
 4339              	.LASF19:
 4340 0932 75696E74 		.ascii	"uint_fast16_t\000"
 4340      5F666173 
 4340      7431365F 
 4340      7400
 4341              	.LASF118:
 4342 0940 55415254 		.ascii	"UART_TNCR\000"
 4342      5F544E43 
 4342      5200
 4343              	.LASF75:
 4344 094a 50494F5F 		.ascii	"PIO_REHLSR\000"
 4344      5245484C 
 4344      535200
 4345              	.LASF132:
 4346 0955 7264796D 		.ascii	"rdymsg\000"
 4346      736700
 4347              	.LASF6:
 4348 095c 73686F72 		.ascii	"short unsigned int\000"
ARM GAS  /tmp/ccNrqTVO.s 			page 85


 4348      7420756E 
 4348      7369676E 
 4348      65642069 
 4348      6E7400
 4349              	.LASF24:
 4350 096f 50494F5F 		.ascii	"PIO_PER\000"
 4350      50455200 
 4351              	.LASF182:
 4352 0977 496E7075 		.ascii	"InputQueue\000"
 4352      74517565 
 4352      756500
 4353              	.LASF7:
 4354 0982 5F5F696E 		.ascii	"__int32_t\000"
 4354      7433325F 
 4354      7400
 4355              	.LASF196:
 4356 098c 53445F53 		.ascii	"SD_STOP\000"
 4356      544F5000 
 4357              	.LASF156:
 4358 0994 31315468 		.ascii	"11ThreadsList\000"
 4358      72656164 
 4358      734C6973 
 4358      7400
 4359              	.LASF184:
 4360 09a2 42617365 		.ascii	"BaseChannelVMT\000"
 4360      4368616E 
 4360      6E656C56 
 4360      4D5400
 4361              	.LASF168:
 4362 09b1 656C5F6D 		.ascii	"el_mask\000"
 4362      61736B00 
 4363              	.LASF225:
 4364 09b9 49324357 		.ascii	"I2CWriteBytes\000"
 4364      72697465 
 4364      42797465 
 4364      7300
 4365              	.LASF142:
 4366 09c7 705F6E61 		.ascii	"p_name\000"
 4366      6D6500
 4367              	.LASF164:
 4368 09ce 6D5F6E65 		.ascii	"m_next\000"
 4368      787400
 4369              	.LASF192:
 4370 09d5 42617365 		.ascii	"BaseChannel\000"
 4370      4368616E 
 4370      6E656C00 
 4371              	.LASF43:
 4372 09e1 50494F5F 		.ascii	"PIO_ISR\000"
 4372      49535200 
 4373              	.LASF108:
 4374 09e9 55415254 		.ascii	"UART_RHR\000"
 4374      5F524852 
 4374      00
 4375              	.LASF222:
 4376 09f2 77615468 		.ascii	"waThread1\000"
 4376      72656164 
 4376      3100
ARM GAS  /tmp/ccNrqTVO.s 			page 86


 4377              	.LASF149:
 4378 09fc 705F6D73 		.ascii	"p_msg\000"
 4378      6700
 4379              	.LASF167:
 4380 0a02 656C5F6C 		.ascii	"el_listener\000"
 4380      69737465 
 4380      6E657200 
 4381              	.LASF98:
 4382 0a0e 50494F5F 		.ascii	"PIO_PTCR\000"
 4382      50544352 
 4382      00
 4383              	.LASF143:
 4384 0a17 705F7374 		.ascii	"p_state\000"
 4384      61746500 
 4385              		.ident	"GCC: (GNU Tools for ARM Embedded Processors) 4.9.3 20150529 (release) [ARM/embedded-4_9-br
ARM GAS  /tmp/ccNrqTVO.s 			page 87


DEFINED SYMBOLS
                            *ABS*:00000000 main.cpp
     /tmp/ccNrqTVO.s:19     .text._ZL9GPSThreadPv:00000000 $t
     /tmp/ccNrqTVO.s:24     .text._ZL9GPSThreadPv:00000000 _ZL9GPSThreadPv
     /tmp/ccNrqTVO.s:285    .text._ZL9GPSThreadPv:00000154 $d
  .ARM.exidx.text._ZL9GPSThreadPv:00000000 $d
     /tmp/ccNrqTVO.s:308    .text._ZL7Thread1Pv:00000000 $t
     /tmp/ccNrqTVO.s:313    .text._ZL7Thread1Pv:00000000 _ZL7Thread1Pv
     /tmp/ccNrqTVO.s:351    .text._ZL7Thread1Pv:00000020 $d
    .ARM.exidx.text._ZL7Thread1Pv:00000000 $d
     /tmp/ccNrqTVO.s:357    .text.startup.main:00000000 $t
     /tmp/ccNrqTVO.s:363    .text.startup.main:00000000 main
     /tmp/ccNrqTVO.s:424    .text.startup.main:00000048 $d
     .ARM.exidx.text.startup.main:00000000 $d
     /tmp/ccNrqTVO.s:435    .bss._ZL9waThread1:00000000 $d
     /tmp/ccNrqTVO.s:439    .bss._ZL9waThread1:00000000 _ZL9waThread1
     /tmp/ccNrqTVO.s:442    .rodata.str1.4:00000000 $d
     /tmp/ccNrqTVO.s:477    .bss._ZL7AreaGPS:00000000 $d
     /tmp/ccNrqTVO.s:481    .bss._ZL7AreaGPS:00000000 _ZL7AreaGPS
                     .debug_frame:00000010 $d

UNDEFINED SYMBOLS
chIQGetTimeout
strstr
strtok
_Z13I2CWriteByteshhh
_Z12I2CReadByteshhPhh
chprintf
SD1
SD2
__aeabi_unwind_cpp_pr0
chThdSleep
halInit
chSysInit
sdStart
_Z7I2CInitv
chThdCreateStatic
