ARM GAS  /tmp/ccjNzyJ2.s 			page 1


   1              		.syntax unified
   2              		.cpu cortex-m3
   3              		.fpu softvfp
   4              		.eabi_attribute 20, 1
   5              		.eabi_attribute 21, 1
   6              		.eabi_attribute 23, 3
   7              		.eabi_attribute 24, 1
   8              		.eabi_attribute 25, 1
   9              		.eabi_attribute 26, 1
  10              		.eabi_attribute 30, 2
  11              		.eabi_attribute 34, 1
  12              		.eabi_attribute 18, 4
  13              		.thumb
  14              		.file	"main.cpp"
  15              		.text
  16              	.Ltext0:
  17              		.cfi_sections	.debug_frame
  18              		.section	.text.startup.main,"ax",%progbits
  19              		.align	2
  20              		.p2align 4,,15
  21              		.global	main
  22              		.thumb
  23              		.thumb_func
  24              		.type	main, %function
  25              	main:
  26              		.fnstart
  27              	.LFB37:
  28              		.file 1 "main.cpp"
  29              		.loc 1 36 0
  30              		.cfi_startproc
  31              		@ args = 0, pretend = 0, frame = 0
  32              		@ frame_needed = 0, uses_anonymous_args = 0
  33 0000 10B5     		push	{r4, lr}
  34              		.save {r4, lr}
  35              		.cfi_def_cfa_offset 8
  36              		.cfi_offset 4, -8
  37              		.cfi_offset 14, -4
  38              	.LBB2:
  39              		.loc 1 38 0
  40 0002 FFF7FEFF 		bl	halInit
  41              	.LVL0:
  42              		.loc 1 39 0
  43 0006 FFF7FEFF 		bl	chSysInit
  44              	.LVL1:
  45              		.loc 1 42 0
  46 000a 1248     		ldr	r0, .L7
  47 000c 0021     		movs	r1, #0
  48 000e FFF7FEFF 		bl	sdStart
  49              	.LVL2:
  50              	.LBB3:
  51              		.loc 1 53 0
  52 0012 114C     		ldr	r4, .L7+4
  53              	.L2:
  54              		.loc 1 44 0
  55 0014 6420     		movs	r0, #100
  56 0016 FFF7FEFF 		bl	chThdSleep
  57              	.LVL3:
ARM GAS  /tmp/ccjNzyJ2.s 			page 2


  58              		.loc 1 45 0
  59 001a 4FF0FF31 		mov	r1, #-1
  60 001e 0F48     		ldr	r0, .L7+8
  61 0020 FFF7FEFF 		bl	chIQGetTimeout
  62              	.LVL4:
  63              		.loc 1 46 0
  64 0024 4FF0FF31 		mov	r1, #-1
  65 0028 0C48     		ldr	r0, .L7+8
  66 002a FFF7FEFF 		bl	chIQGetTimeout
  67              	.LVL5:
  68 002e C3B2     		uxtb	r3, r0
  69 0030 312B     		cmp	r3, #49
  70              		.loc 1 52 0
  71 0032 4FF0FF31 		mov	r1, #-1
  72 0036 0948     		ldr	r0, .L7+8
  73              		.loc 1 51 0
  74 0038 4FF40033 		mov	r3, #131072
  75              		.loc 1 46 0
  76 003c 01D1     		bne	.L3
  77              		.loc 1 51 0
  78 003e 2363     		str	r3, [r4, #48]
  79 0040 E8E7     		b	.L2
  80              	.L3:
  81              		.loc 1 52 0
  82 0042 FFF7FEFF 		bl	chIQGetTimeout
  83              	.LVL6:
  84 0046 C0B2     		uxtb	r0, r0
  85 0048 3228     		cmp	r0, #50
  86 004a E3D1     		bne	.L2
  87              		.loc 1 53 0
  88 004c 4FF40033 		mov	r3, #131072
  89 0050 6363     		str	r3, [r4, #52]
  90 0052 DFE7     		b	.L2
  91              	.L8:
  92              		.align	2
  93              	.L7:
  94 0054 00000000 		.word	SD2
  95 0058 00120E40 		.word	1074663936
  96 005c 10000000 		.word	SD2+16
  97              	.LBE3:
  98              	.LBE2:
  99              		.cfi_endproc
 100              	.LFE37:
 101              		.fnend
 102              		.size	main, .-main
 103              		.text
 104              	.Letext0:
 105              		.file 2 "/home/david/Desktop/Embebidos/gcc-arm-none-eabi-4_9-2015q3/arm-none-eabi/include/machine/
 106              		.file 3 "/home/david/Desktop/Embebidos/gcc-arm-none-eabi-4_9-2015q3/arm-none-eabi/include/sys/_std
 107              		.file 4 "/home/david/Desktop/Embebidos/gcc-arm-none-eabi-4_9-2015q3/arm-none-eabi/include/stdint.h
 108              		.file 5 "ChibiOS/os/hal/platforms/AT91SAM3S/at91lib/SAM3S.h"
 109              		.file 6 "/home/david/Desktop/Embebidos/gcc-arm-none-eabi-4_9-2015q3/lib/gcc/arm-none-eabi/4.9.3/in
 110              		.file 7 "ChibiOS/os/ports/GCC/ARMCMx/chtypes.h"
 111              		.file 8 "ChibiOS/os/kernel/include/chlists.h"
 112              		.file 9 "ChibiOS/os/kernel/include/chthreads.h"
 113              		.file 10 "ChibiOS/os/ports/GCC/ARMCMx/chcore_v7m.h"
 114              		.file 11 "ChibiOS/os/kernel/include/chmtx.h"
ARM GAS  /tmp/ccjNzyJ2.s 			page 3


 115              		.file 12 "ChibiOS/os/kernel/include/chevents.h"
 116              		.file 13 "ChibiOS/os/kernel/include/chqueues.h"
 117              		.file 14 "ChibiOS/os/kernel/include/chioch.h"
 118              		.file 15 "ChibiOS/os/hal/platforms/AT91SAM3S/pal_lld.h"
 119              		.file 16 "ChibiOS/os/hal/include/serial.h"
 120              		.file 17 "ChibiOS/os/hal/platforms/AT91SAM3S/serial_lld.h"
 121              		.file 18 "ChibiOS/os/hal/include/hal.h"
 122              		.file 19 "ChibiOS/os/kernel/include/chsys.h"
 123              		.file 20 "ChibiOS/os/hal/platforms/AT91SAM3S/core_cm3.h"
 124              		.section	.debug_info,"",%progbits
 125              	.Ldebug_info0:
 126 0000 790E0000 		.4byte	0xe79
 127 0004 0400     		.2byte	0x4
 128 0006 00000000 		.4byte	.Ldebug_abbrev0
 129 000a 04       		.byte	0x4
 130 000b 01       		.uleb128 0x1
 131 000c B3040000 		.4byte	.LASF210
 132 0010 04       		.byte	0x4
 133 0011 83060000 		.4byte	.LASF211
 134 0015 70040000 		.4byte	.LASF212
 135 0019 00000000 		.4byte	.Ldebug_ranges0+0
 136 001d 00000000 		.4byte	0
 137 0021 00000000 		.4byte	.Ldebug_line0
 138 0025 02       		.uleb128 0x2
 139 0026 01       		.byte	0x1
 140 0027 06       		.byte	0x6
 141 0028 0E010000 		.4byte	.LASF0
 142 002c 03       		.uleb128 0x3
 143 002d 51000000 		.4byte	.LASF4
 144 0031 02       		.byte	0x2
 145 0032 1D       		.byte	0x1d
 146 0033 37000000 		.4byte	0x37
 147 0037 02       		.uleb128 0x2
 148 0038 01       		.byte	0x1
 149 0039 08       		.byte	0x8
 150 003a 50060000 		.4byte	.LASF1
 151 003e 02       		.uleb128 0x2
 152 003f 02       		.byte	0x2
 153 0040 05       		.byte	0x5
 154 0041 71060000 		.4byte	.LASF2
 155 0045 02       		.uleb128 0x2
 156 0046 02       		.byte	0x2
 157 0047 07       		.byte	0x7
 158 0048 2E030000 		.4byte	.LASF3
 159 004c 03       		.uleb128 0x3
 160 004d A5070000 		.4byte	.LASF5
 161 0051 02       		.byte	0x2
 162 0052 3F       		.byte	0x3f
 163 0053 57000000 		.4byte	0x57
 164 0057 02       		.uleb128 0x2
 165 0058 04       		.byte	0x4
 166 0059 05       		.byte	0x5
 167 005a C3010000 		.4byte	.LASF6
 168 005e 03       		.uleb128 0x3
 169 005f 3D020000 		.4byte	.LASF7
 170 0063 02       		.byte	0x2
 171 0064 41       		.byte	0x41
ARM GAS  /tmp/ccjNzyJ2.s 			page 4


 172 0065 69000000 		.4byte	0x69
 173 0069 02       		.uleb128 0x2
 174 006a 04       		.byte	0x4
 175 006b 07       		.byte	0x7
 176 006c 4A070000 		.4byte	.LASF8
 177 0070 02       		.uleb128 0x2
 178 0071 08       		.byte	0x8
 179 0072 05       		.byte	0x5
 180 0073 00010000 		.4byte	.LASF9
 181 0077 02       		.uleb128 0x2
 182 0078 08       		.byte	0x8
 183 0079 07       		.byte	0x7
 184 007a 90000000 		.4byte	.LASF10
 185 007e 04       		.uleb128 0x4
 186 007f 04       		.byte	0x4
 187 0080 05       		.byte	0x5
 188 0081 696E7400 		.ascii	"int\000"
 189 0085 02       		.uleb128 0x2
 190 0086 04       		.byte	0x4
 191 0087 07       		.byte	0x7
 192 0088 9A020000 		.4byte	.LASF11
 193 008c 03       		.uleb128 0x3
 194 008d 46080000 		.4byte	.LASF12
 195 0091 03       		.byte	0x3
 196 0092 14       		.byte	0x14
 197 0093 2C000000 		.4byte	0x2c
 198 0097 03       		.uleb128 0x3
 199 0098 48060000 		.4byte	.LASF13
 200 009c 03       		.byte	0x3
 201 009d 1F       		.byte	0x1f
 202 009e 4C000000 		.4byte	0x4c
 203 00a2 03       		.uleb128 0x3
 204 00a3 0E070000 		.4byte	.LASF14
 205 00a7 03       		.byte	0x3
 206 00a8 20       		.byte	0x20
 207 00a9 5E000000 		.4byte	0x5e
 208 00ad 03       		.uleb128 0x3
 209 00ae 01060000 		.4byte	.LASF15
 210 00b2 04       		.byte	0x4
 211 00b3 3E       		.byte	0x3e
 212 00b4 85000000 		.4byte	0x85
 213 00b8 03       		.uleb128 0x3
 214 00b9 7A030000 		.4byte	.LASF16
 215 00bd 05       		.byte	0x5
 216 00be 37       		.byte	0x37
 217 00bf C3000000 		.4byte	0xc3
 218 00c3 05       		.uleb128 0x5
 219 00c4 A2000000 		.4byte	0xa2
 220 00c8 03       		.uleb128 0x3
 221 00c9 A2050000 		.4byte	.LASF17
 222 00cd 05       		.byte	0x5
 223 00ce 39       		.byte	0x39
 224 00cf C3000000 		.4byte	0xc3
 225 00d3 03       		.uleb128 0x3
 226 00d4 F2030000 		.4byte	.LASF18
 227 00d8 05       		.byte	0x5
 228 00d9 3A       		.byte	0x3a
ARM GAS  /tmp/ccjNzyJ2.s 			page 5


 229 00da C3000000 		.4byte	0xc3
 230 00de 02       		.uleb128 0x2
 231 00df 04       		.byte	0x4
 232 00e0 07       		.byte	0x7
 233 00e1 12040000 		.4byte	.LASF19
 234 00e5 06       		.uleb128 0x6
 235 00e6 69000000 		.4byte	0x69
 236 00ea F5000000 		.4byte	0xf5
 237 00ee 07       		.uleb128 0x7
 238 00ef DE000000 		.4byte	0xde
 239 00f3 12       		.byte	0x12
 240 00f4 00       		.byte	0
 241 00f5 06       		.uleb128 0x6
 242 00f6 69000000 		.4byte	0x69
 243 00fa 05010000 		.4byte	0x105
 244 00fe 07       		.uleb128 0x7
 245 00ff DE000000 		.4byte	0xde
 246 0103 00       		.byte	0
 247 0104 00       		.byte	0
 248 0105 06       		.uleb128 0x6
 249 0106 69000000 		.4byte	0x69
 250 010a 15010000 		.4byte	0x115
 251 010e 07       		.uleb128 0x7
 252 010f DE000000 		.4byte	0xde
 253 0113 01       		.byte	0x1
 254 0114 00       		.byte	0
 255 0115 06       		.uleb128 0x6
 256 0116 69000000 		.4byte	0x69
 257 011a 25010000 		.4byte	0x125
 258 011e 07       		.uleb128 0x7
 259 011f DE000000 		.4byte	0xde
 260 0123 04       		.byte	0x4
 261 0124 00       		.byte	0
 262 0125 08       		.uleb128 0x8
 263 0126 9001     		.2byte	0x190
 264 0128 05       		.byte	0x5
 265 0129 DA06     		.2byte	0x6da
 266 012b 08030000 		.4byte	.LASF96
 267 012f 22050000 		.4byte	0x522
 268 0133 09       		.uleb128 0x9
 269 0134 92020000 		.4byte	.LASF20
 270 0138 05       		.byte	0x5
 271 0139 DB06     		.2byte	0x6db
 272 013b C8000000 		.4byte	0xc8
 273 013f 00       		.byte	0
 274 0140 09       		.uleb128 0x9
 275 0141 B5010000 		.4byte	.LASF21
 276 0145 05       		.byte	0x5
 277 0146 DC06     		.2byte	0x6dc
 278 0148 C8000000 		.4byte	0xc8
 279 014c 04       		.byte	0x4
 280 014d 09       		.uleb128 0x9
 281 014e 48010000 		.4byte	.LASF22
 282 0152 05       		.byte	0x5
 283 0153 DD06     		.2byte	0x6dd
 284 0155 B8000000 		.4byte	0xb8
 285 0159 08       		.byte	0x8
ARM GAS  /tmp/ccjNzyJ2.s 			page 6


 286 015a 09       		.uleb128 0x9
 287 015b F6020000 		.4byte	.LASF23
 288 015f 05       		.byte	0x5
 289 0160 DE06     		.2byte	0x6de
 290 0162 22050000 		.4byte	0x522
 291 0166 0C       		.byte	0xc
 292 0167 09       		.uleb128 0x9
 293 0168 0A040000 		.4byte	.LASF24
 294 016c 05       		.byte	0x5
 295 016d DF06     		.2byte	0x6df
 296 016f C8000000 		.4byte	0xc8
 297 0173 10       		.byte	0x10
 298 0174 09       		.uleb128 0x9
 299 0175 00030000 		.4byte	.LASF25
 300 0179 05       		.byte	0x5
 301 017a E006     		.2byte	0x6e0
 302 017c C8000000 		.4byte	0xc8
 303 0180 14       		.byte	0x14
 304 0181 09       		.uleb128 0x9
 305 0182 CB020000 		.4byte	.LASF26
 306 0186 05       		.byte	0x5
 307 0187 E106     		.2byte	0x6e1
 308 0189 B8000000 		.4byte	0xb8
 309 018d 18       		.byte	0x18
 310 018e 09       		.uleb128 0x9
 311 018f 58010000 		.4byte	.LASF27
 312 0193 05       		.byte	0x5
 313 0194 E206     		.2byte	0x6e2
 314 0196 27050000 		.4byte	0x527
 315 019a 1C       		.byte	0x1c
 316 019b 09       		.uleb128 0x9
 317 019c C8070000 		.4byte	.LASF28
 318 01a0 05       		.byte	0x5
 319 01a1 E306     		.2byte	0x6e3
 320 01a3 C8000000 		.4byte	0xc8
 321 01a7 20       		.byte	0x20
 322 01a8 09       		.uleb128 0x9
 323 01a9 94060000 		.4byte	.LASF29
 324 01ad 05       		.byte	0x5
 325 01ae E406     		.2byte	0x6e4
 326 01b0 C8000000 		.4byte	0xc8
 327 01b4 24       		.byte	0x24
 328 01b5 09       		.uleb128 0x9
 329 01b6 5E060000 		.4byte	.LASF30
 330 01ba 05       		.byte	0x5
 331 01bb E506     		.2byte	0x6e5
 332 01bd B8000000 		.4byte	0xb8
 333 01c1 28       		.byte	0x28
 334 01c2 09       		.uleb128 0x9
 335 01c3 62010000 		.4byte	.LASF31
 336 01c7 05       		.byte	0x5
 337 01c8 E606     		.2byte	0x6e6
 338 01ca 2C050000 		.4byte	0x52c
 339 01ce 2C       		.byte	0x2c
 340 01cf 09       		.uleb128 0x9
 341 01d0 9B080000 		.4byte	.LASF32
 342 01d4 05       		.byte	0x5
ARM GAS  /tmp/ccjNzyJ2.s 			page 7


 343 01d5 E706     		.2byte	0x6e7
 344 01d7 C8000000 		.4byte	0xc8
 345 01db 30       		.byte	0x30
 346 01dc 09       		.uleb128 0x9
 347 01dd AB060000 		.4byte	.LASF33
 348 01e1 05       		.byte	0x5
 349 01e2 E806     		.2byte	0x6e8
 350 01e4 C8000000 		.4byte	0xc8
 351 01e8 34       		.byte	0x34
 352 01e9 09       		.uleb128 0x9
 353 01ea 99050000 		.4byte	.LASF34
 354 01ee 05       		.byte	0x5
 355 01ef E906     		.2byte	0x6e9
 356 01f1 D3000000 		.4byte	0xd3
 357 01f5 38       		.byte	0x38
 358 01f6 09       		.uleb128 0x9
 359 01f7 00020000 		.4byte	.LASF35
 360 01fb 05       		.byte	0x5
 361 01fc EA06     		.2byte	0x6ea
 362 01fe B8000000 		.4byte	0xb8
 363 0202 3C       		.byte	0x3c
 364 0203 09       		.uleb128 0x9
 365 0204 98040000 		.4byte	.LASF36
 366 0208 05       		.byte	0x5
 367 0209 EB06     		.2byte	0x6eb
 368 020b C8000000 		.4byte	0xc8
 369 020f 40       		.byte	0x40
 370 0210 09       		.uleb128 0x9
 371 0211 BC030000 		.4byte	.LASF37
 372 0215 05       		.byte	0x5
 373 0216 EC06     		.2byte	0x6ec
 374 0218 C8000000 		.4byte	0xc8
 375 021c 44       		.byte	0x44
 376 021d 09       		.uleb128 0x9
 377 021e 40060000 		.4byte	.LASF38
 378 0222 05       		.byte	0x5
 379 0223 ED06     		.2byte	0x6ed
 380 0225 B8000000 		.4byte	0xb8
 381 0229 48       		.byte	0x48
 382 022a 09       		.uleb128 0x9
 383 022b 6A030000 		.4byte	.LASF39
 384 022f 05       		.byte	0x5
 385 0230 EE06     		.2byte	0x6ee
 386 0232 B8000000 		.4byte	0xb8
 387 0236 4C       		.byte	0x4c
 388 0237 09       		.uleb128 0x9
 389 0238 05070000 		.4byte	.LASF40
 390 023c 05       		.byte	0x5
 391 023d EF06     		.2byte	0x6ef
 392 023f C8000000 		.4byte	0xc8
 393 0243 50       		.byte	0x50
 394 0244 09       		.uleb128 0x9
 395 0245 E7050000 		.4byte	.LASF41
 396 0249 05       		.byte	0x5
 397 024a F006     		.2byte	0x6f0
 398 024c C8000000 		.4byte	0xc8
 399 0250 54       		.byte	0x54
ARM GAS  /tmp/ccjNzyJ2.s 			page 8


 400 0251 09       		.uleb128 0x9
 401 0252 D9000000 		.4byte	.LASF42
 402 0256 05       		.byte	0x5
 403 0257 F106     		.2byte	0x6f1
 404 0259 B8000000 		.4byte	0xb8
 405 025d 58       		.byte	0x58
 406 025e 09       		.uleb128 0x9
 407 025f 6C010000 		.4byte	.LASF43
 408 0263 05       		.byte	0x5
 409 0264 F206     		.2byte	0x6f2
 410 0266 31050000 		.4byte	0x531
 411 026a 5C       		.byte	0x5c
 412 026b 09       		.uleb128 0x9
 413 026c CC010000 		.4byte	.LASF44
 414 0270 05       		.byte	0x5
 415 0271 F306     		.2byte	0x6f3
 416 0273 C8000000 		.4byte	0xc8
 417 0277 60       		.byte	0x60
 418 0278 09       		.uleb128 0x9
 419 0279 A7020000 		.4byte	.LASF45
 420 027d 05       		.byte	0x5
 421 027e F406     		.2byte	0x6f4
 422 0280 C8000000 		.4byte	0xc8
 423 0284 64       		.byte	0x64
 424 0285 09       		.uleb128 0x9
 425 0286 76010000 		.4byte	.LASF46
 426 028a 05       		.byte	0x5
 427 028b F506     		.2byte	0x6f5
 428 028d B8000000 		.4byte	0xb8
 429 0291 68       		.byte	0x68
 430 0292 09       		.uleb128 0x9
 431 0293 16030000 		.4byte	.LASF47
 432 0297 05       		.byte	0x5
 433 0298 F606     		.2byte	0x6f6
 434 029a 36050000 		.4byte	0x536
 435 029e 6C       		.byte	0x6c
 436 029f 09       		.uleb128 0x9
 437 02a0 32020000 		.4byte	.LASF48
 438 02a4 05       		.byte	0x5
 439 02a5 F706     		.2byte	0x6f7
 440 02a7 3B050000 		.4byte	0x53b
 441 02ab 70       		.byte	0x70
 442 02ac 09       		.uleb128 0x9
 443 02ad 7F010000 		.4byte	.LASF49
 444 02b1 05       		.byte	0x5
 445 02b2 F806     		.2byte	0x6f8
 446 02b4 40050000 		.4byte	0x540
 447 02b8 78       		.byte	0x78
 448 02b9 09       		.uleb128 0x9
 449 02ba AF070000 		.4byte	.LASF50
 450 02be 05       		.byte	0x5
 451 02bf F906     		.2byte	0x6f9
 452 02c1 C8000000 		.4byte	0xc8
 453 02c5 80       		.byte	0x80
 454 02c6 09       		.uleb128 0x9
 455 02c7 87080000 		.4byte	.LASF51
 456 02cb 05       		.byte	0x5
ARM GAS  /tmp/ccjNzyJ2.s 			page 9


 457 02cc FA06     		.2byte	0x6fa
 458 02ce C8000000 		.4byte	0xc8
 459 02d2 84       		.byte	0x84
 460 02d3 09       		.uleb128 0x9
 461 02d4 78070000 		.4byte	.LASF52
 462 02d8 05       		.byte	0x5
 463 02d9 FB06     		.2byte	0x6fb
 464 02db B8000000 		.4byte	0xb8
 465 02df 88       		.byte	0x88
 466 02e0 09       		.uleb128 0x9
 467 02e1 D0000000 		.4byte	.LASF53
 468 02e5 05       		.byte	0x5
 469 02e6 FC06     		.2byte	0x6fc
 470 02e8 D3000000 		.4byte	0xd3
 471 02ec 8C       		.byte	0x8c
 472 02ed 09       		.uleb128 0x9
 473 02ee C1050000 		.4byte	.LASF54
 474 02f2 05       		.byte	0x5
 475 02f3 FD06     		.2byte	0x6fd
 476 02f5 C8000000 		.4byte	0xc8
 477 02f9 90       		.byte	0x90
 478 02fa 09       		.uleb128 0x9
 479 02fb DD060000 		.4byte	.LASF55
 480 02ff 05       		.byte	0x5
 481 0300 FE06     		.2byte	0x6fe
 482 0302 C8000000 		.4byte	0xc8
 483 0306 94       		.byte	0x94
 484 0307 09       		.uleb128 0x9
 485 0308 A0040000 		.4byte	.LASF56
 486 030c 05       		.byte	0x5
 487 030d FF06     		.2byte	0x6ff
 488 030f B8000000 		.4byte	0xb8
 489 0313 98       		.byte	0x98
 490 0314 09       		.uleb128 0x9
 491 0315 89010000 		.4byte	.LASF57
 492 0319 05       		.byte	0x5
 493 031a 0007     		.2byte	0x700
 494 031c 45050000 		.4byte	0x545
 495 0320 9C       		.byte	0x9c
 496 0321 09       		.uleb128 0x9
 497 0322 74000000 		.4byte	.LASF58
 498 0326 05       		.byte	0x5
 499 0327 0107     		.2byte	0x701
 500 0329 C8000000 		.4byte	0xc8
 501 032d A0       		.byte	0xa0
 502 032e 09       		.uleb128 0x9
 503 032f 92080000 		.4byte	.LASF59
 504 0333 05       		.byte	0x5
 505 0334 0207     		.2byte	0x702
 506 0336 C8000000 		.4byte	0xc8
 507 033a A4       		.byte	0xa4
 508 033b 09       		.uleb128 0x9
 509 033c 5D080000 		.4byte	.LASF60
 510 0340 05       		.byte	0x5
 511 0341 0307     		.2byte	0x703
 512 0343 B8000000 		.4byte	0xb8
 513 0347 A8       		.byte	0xa8
ARM GAS  /tmp/ccjNzyJ2.s 			page 10


 514 0348 09       		.uleb128 0x9
 515 0349 93010000 		.4byte	.LASF61
 516 034d 05       		.byte	0x5
 517 034e 0407     		.2byte	0x704
 518 0350 4A050000 		.4byte	0x54a
 519 0354 AC       		.byte	0xac
 520 0355 09       		.uleb128 0x9
 521 0356 1C000000 		.4byte	.LASF62
 522 035a 05       		.byte	0x5
 523 035b 0507     		.2byte	0x705
 524 035d C8000000 		.4byte	0xc8
 525 0361 B0       		.byte	0xb0
 526 0362 09       		.uleb128 0x9
 527 0363 66070000 		.4byte	.LASF63
 528 0367 05       		.byte	0x5
 529 0368 0607     		.2byte	0x706
 530 036a C8000000 		.4byte	0xc8
 531 036e B4       		.byte	0xb4
 532 036f 09       		.uleb128 0x9
 533 0370 E8030000 		.4byte	.LASF64
 534 0374 05       		.byte	0x5
 535 0375 0707     		.2byte	0x707
 536 0377 B8000000 		.4byte	0xb8
 537 037b B8       		.byte	0xb8
 538 037c 09       		.uleb128 0x9
 539 037d 9D010000 		.4byte	.LASF65
 540 0381 05       		.byte	0x5
 541 0382 0807     		.2byte	0x708
 542 0384 4F050000 		.4byte	0x54f
 543 0388 BC       		.byte	0xbc
 544 0389 09       		.uleb128 0x9
 545 038a 2E010000 		.4byte	.LASF66
 546 038e 05       		.byte	0x5
 547 038f 0907     		.2byte	0x709
 548 0391 C8000000 		.4byte	0xc8
 549 0395 C0       		.byte	0xc0
 550 0396 09       		.uleb128 0x9
 551 0397 26080000 		.4byte	.LASF67
 552 039b 05       		.byte	0x5
 553 039c 0A07     		.2byte	0x70a
 554 039e C8000000 		.4byte	0xc8
 555 03a2 C4       		.byte	0xc4
 556 03a3 09       		.uleb128 0x9
 557 03a4 0A000000 		.4byte	.LASF68
 558 03a8 05       		.byte	0x5
 559 03a9 0B07     		.2byte	0x70b
 560 03ab B8000000 		.4byte	0xb8
 561 03af C8       		.byte	0xc8
 562 03b0 09       		.uleb128 0x9
 563 03b1 51020000 		.4byte	.LASF69
 564 03b5 05       		.byte	0x5
 565 03b6 0C07     		.2byte	0x70c
 566 03b8 54050000 		.4byte	0x554
 567 03bc CC       		.byte	0xcc
 568 03bd 09       		.uleb128 0x9
 569 03be 1C060000 		.4byte	.LASF70
 570 03c2 05       		.byte	0x5
ARM GAS  /tmp/ccjNzyJ2.s 			page 11


 571 03c3 0D07     		.2byte	0x70d
 572 03c5 C8000000 		.4byte	0xc8
 573 03c9 D0       		.byte	0xd0
 574 03ca 09       		.uleb128 0x9
 575 03cb 17070000 		.4byte	.LASF71
 576 03cf 05       		.byte	0x5
 577 03d0 0E07     		.2byte	0x70e
 578 03d2 C8000000 		.4byte	0xc8
 579 03d6 D4       		.byte	0xd4
 580 03d7 09       		.uleb128 0x9
 581 03d8 B0020000 		.4byte	.LASF72
 582 03dc 05       		.byte	0x5
 583 03dd 0F07     		.2byte	0x70f
 584 03df B8000000 		.4byte	0xb8
 585 03e3 D8       		.byte	0xd8
 586 03e4 09       		.uleb128 0x9
 587 03e5 5C020000 		.4byte	.LASF73
 588 03e9 05       		.byte	0x5
 589 03ea 1007     		.2byte	0x710
 590 03ec 59050000 		.4byte	0x559
 591 03f0 DC       		.byte	0xdc
 592 03f1 09       		.uleb128 0x9
 593 03f2 58030000 		.4byte	.LASF74
 594 03f6 05       		.byte	0x5
 595 03f7 1107     		.2byte	0x711
 596 03f9 B8000000 		.4byte	0xb8
 597 03fd E0       		.byte	0xe0
 598 03fe 09       		.uleb128 0x9
 599 03ff 2F040000 		.4byte	.LASF75
 600 0403 05       		.byte	0x5
 601 0404 1207     		.2byte	0x712
 602 0406 D3000000 		.4byte	0xd3
 603 040a E4       		.byte	0xe4
 604 040b 09       		.uleb128 0x9
 605 040c 7D020000 		.4byte	.LASF76
 606 0410 05       		.byte	0x5
 607 0411 1307     		.2byte	0x713
 608 0413 B8000000 		.4byte	0xb8
 609 0417 E8       		.byte	0xe8
 610 0418 09       		.uleb128 0x9
 611 0419 67020000 		.4byte	.LASF77
 612 041d 05       		.byte	0x5
 613 041e 1407     		.2byte	0x714
 614 0420 5E050000 		.4byte	0x55e
 615 0424 EC       		.byte	0xec
 616 0425 0A       		.uleb128 0xa
 617 0426 5B000000 		.4byte	.LASF78
 618 042a 05       		.byte	0x5
 619 042b 1507     		.2byte	0x715
 620 042d D3000000 		.4byte	0xd3
 621 0431 0001     		.2byte	0x100
 622 0433 0A       		.uleb128 0xa
 623 0434 72020000 		.4byte	.LASF79
 624 0438 05       		.byte	0x5
 625 0439 1607     		.2byte	0x716
 626 043b 63050000 		.4byte	0x563
 627 043f 0401     		.2byte	0x104
ARM GAS  /tmp/ccjNzyJ2.s 			page 12


 628 0441 0A       		.uleb128 0xa
 629 0442 37060000 		.4byte	.LASF80
 630 0446 05       		.byte	0x5
 631 0447 1707     		.2byte	0x717
 632 0449 D3000000 		.4byte	0xd3
 633 044d 5001     		.2byte	0x150
 634 044f 0A       		.uleb128 0xa
 635 0450 F6010000 		.4byte	.LASF81
 636 0454 05       		.byte	0x5
 637 0455 1807     		.2byte	0x718
 638 0457 C8000000 		.4byte	0xc8
 639 045b 5401     		.2byte	0x154
 640 045d 0A       		.uleb128 0xa
 641 045e B0000000 		.4byte	.LASF82
 642 0462 05       		.byte	0x5
 643 0463 1907     		.2byte	0x719
 644 0465 C8000000 		.4byte	0xc8
 645 0469 5801     		.2byte	0x158
 646 046b 0A       		.uleb128 0xa
 647 046c 1A010000 		.4byte	.LASF83
 648 0470 05       		.byte	0x5
 649 0471 1A07     		.2byte	0x71a
 650 0473 B8000000 		.4byte	0xb8
 651 0477 5C01     		.2byte	0x15c
 652 0479 0A       		.uleb128 0xa
 653 047a 86000000 		.4byte	.LASF84
 654 047e 05       		.byte	0x5
 655 047f 1B07     		.2byte	0x71b
 656 0481 B8000000 		.4byte	0xb8
 657 0485 6001     		.2byte	0x160
 658 0487 0A       		.uleb128 0xa
 659 0488 00000000 		.4byte	.LASF85
 660 048c 05       		.byte	0x5
 661 048d 1C07     		.2byte	0x71c
 662 048f B8000000 		.4byte	0xb8
 663 0493 6401     		.2byte	0x164
 664 0495 0A       		.uleb128 0xa
 665 0496 41030000 		.4byte	.LASF86
 666 049a 05       		.byte	0x5
 667 049b 1D07     		.2byte	0x71d
 668 049d D3000000 		.4byte	0xd3
 669 04a1 6801     		.2byte	0x168
 670 04a3 0A       		.uleb128 0xa
 671 04a4 BC060000 		.4byte	.LASF87
 672 04a8 05       		.byte	0x5
 673 04a9 1E07     		.2byte	0x71e
 674 04ab D3000000 		.4byte	0xd3
 675 04af 6C01     		.2byte	0x16c
 676 04b1 0A       		.uleb128 0xa
 677 04b2 FA070000 		.4byte	.LASF88
 678 04b6 05       		.byte	0x5
 679 04b7 1F07     		.2byte	0x71f
 680 04b9 D3000000 		.4byte	0xd3
 681 04bd 7001     		.2byte	0x170
 682 04bf 0A       		.uleb128 0xa
 683 04c0 4D040000 		.4byte	.LASF89
 684 04c4 05       		.byte	0x5
ARM GAS  /tmp/ccjNzyJ2.s 			page 13


 685 04c5 2007     		.2byte	0x720
 686 04c7 D3000000 		.4byte	0xd3
 687 04cb 7401     		.2byte	0x174
 688 04cd 0A       		.uleb128 0xa
 689 04ce D1070000 		.4byte	.LASF90
 690 04d2 05       		.byte	0x5
 691 04d3 2107     		.2byte	0x721
 692 04d5 D3000000 		.4byte	0xd3
 693 04d9 7801     		.2byte	0x178
 694 04db 0A       		.uleb128 0xa
 695 04dc BA000000 		.4byte	.LASF91
 696 04e0 05       		.byte	0x5
 697 04e1 2207     		.2byte	0x722
 698 04e3 D3000000 		.4byte	0xd3
 699 04e7 7C01     		.2byte	0x17c
 700 04e9 0A       		.uleb128 0xa
 701 04ea F0050000 		.4byte	.LASF92
 702 04ee 05       		.byte	0x5
 703 04ef 2307     		.2byte	0x723
 704 04f1 D3000000 		.4byte	0xd3
 705 04f5 8001     		.2byte	0x180
 706 04f7 0A       		.uleb128 0xa
 707 04f8 37080000 		.4byte	.LASF93
 708 04fc 05       		.byte	0x5
 709 04fd 2407     		.2byte	0x724
 710 04ff D3000000 		.4byte	0xd3
 711 0503 8401     		.2byte	0x184
 712 0505 0A       		.uleb128 0xa
 713 0506 09020000 		.4byte	.LASF94
 714 050a 05       		.byte	0x5
 715 050b 2507     		.2byte	0x725
 716 050d C8000000 		.4byte	0xc8
 717 0511 8801     		.2byte	0x188
 718 0513 0A       		.uleb128 0xa
 719 0514 E5020000 		.4byte	.LASF95
 720 0518 05       		.byte	0x5
 721 0519 2607     		.2byte	0x726
 722 051b B8000000 		.4byte	0xb8
 723 051f 8C01     		.2byte	0x18c
 724 0521 00       		.byte	0
 725 0522 05       		.uleb128 0x5
 726 0523 F5000000 		.4byte	0xf5
 727 0527 05       		.uleb128 0x5
 728 0528 F5000000 		.4byte	0xf5
 729 052c 05       		.uleb128 0x5
 730 052d F5000000 		.4byte	0xf5
 731 0531 05       		.uleb128 0x5
 732 0532 F5000000 		.4byte	0xf5
 733 0536 05       		.uleb128 0x5
 734 0537 F5000000 		.4byte	0xf5
 735 053b 05       		.uleb128 0x5
 736 053c 05010000 		.4byte	0x105
 737 0540 05       		.uleb128 0x5
 738 0541 05010000 		.4byte	0x105
 739 0545 05       		.uleb128 0x5
 740 0546 F5000000 		.4byte	0xf5
 741 054a 05       		.uleb128 0x5
ARM GAS  /tmp/ccjNzyJ2.s 			page 14


 742 054b F5000000 		.4byte	0xf5
 743 054f 05       		.uleb128 0x5
 744 0550 F5000000 		.4byte	0xf5
 745 0554 05       		.uleb128 0x5
 746 0555 F5000000 		.4byte	0xf5
 747 0559 05       		.uleb128 0x5
 748 055a F5000000 		.4byte	0xf5
 749 055e 05       		.uleb128 0x5
 750 055f 15010000 		.4byte	0x115
 751 0563 05       		.uleb128 0x5
 752 0564 E5000000 		.4byte	0xe5
 753 0568 0B       		.uleb128 0xb
 754 0569 50696F00 		.ascii	"Pio\000"
 755 056d 05       		.byte	0x5
 756 056e 2707     		.2byte	0x727
 757 0570 25010000 		.4byte	0x125
 758 0574 08       		.uleb128 0x8
 759 0575 2801     		.2byte	0x128
 760 0577 05       		.byte	0x5
 761 0578 0817     		.2byte	0x1708
 762 057a 83070000 		.4byte	.LASF97
 763 057e 91060000 		.4byte	0x691
 764 0582 09       		.uleb128 0x9
 765 0583 8B030000 		.4byte	.LASF98
 766 0587 05       		.byte	0x5
 767 0588 0917     		.2byte	0x1709
 768 058a C8000000 		.4byte	0xc8
 769 058e 00       		.byte	0
 770 058f 09       		.uleb128 0x9
 771 0590 42070000 		.4byte	.LASF99
 772 0594 05       		.byte	0x5
 773 0595 0A17     		.2byte	0x170a
 774 0597 D3000000 		.4byte	0xd3
 775 059b 04       		.byte	0x4
 776 059c 09       		.uleb128 0x9
 777 059d B2080000 		.4byte	.LASF100
 778 05a1 05       		.byte	0x5
 779 05a2 0B17     		.2byte	0x170b
 780 05a4 C8000000 		.4byte	0xc8
 781 05a8 08       		.byte	0x8
 782 05a9 09       		.uleb128 0x9
 783 05aa E1070000 		.4byte	.LASF101
 784 05ae 05       		.byte	0x5
 785 05af 0C17     		.2byte	0x170c
 786 05b1 C8000000 		.4byte	0xc8
 787 05b5 0C       		.byte	0xc
 788 05b6 09       		.uleb128 0x9
 789 05b7 13000000 		.4byte	.LASF102
 790 05bb 05       		.byte	0x5
 791 05bc 0D17     		.2byte	0x170d
 792 05be B8000000 		.4byte	0xb8
 793 05c2 10       		.byte	0x10
 794 05c3 09       		.uleb128 0x9
 795 05c4 55040000 		.4byte	.LASF103
 796 05c8 05       		.byte	0x5
 797 05c9 0E17     		.2byte	0x170e
 798 05cb B8000000 		.4byte	0xb8
ARM GAS  /tmp/ccjNzyJ2.s 			page 15


 799 05cf 14       		.byte	0x14
 800 05d0 09       		.uleb128 0x9
 801 05d1 22070000 		.4byte	.LASF104
 802 05d5 05       		.byte	0x5
 803 05d6 0F17     		.2byte	0x170f
 804 05d8 B8000000 		.4byte	0xb8
 805 05dc 18       		.byte	0x18
 806 05dd 09       		.uleb128 0x9
 807 05de 0D030000 		.4byte	.LASF105
 808 05e2 05       		.byte	0x5
 809 05e3 1017     		.2byte	0x1710
 810 05e5 C8000000 		.4byte	0xc8
 811 05e9 1C       		.byte	0x1c
 812 05ea 09       		.uleb128 0x9
 813 05eb A8050000 		.4byte	.LASF106
 814 05ef 05       		.byte	0x5
 815 05f0 1117     		.2byte	0x1711
 816 05f2 D3000000 		.4byte	0xd3
 817 05f6 20       		.byte	0x20
 818 05f7 09       		.uleb128 0x9
 819 05f8 F6020000 		.4byte	.LASF23
 820 05fc 05       		.byte	0x5
 821 05fd 1217     		.2byte	0x1712
 822 05ff A1060000 		.4byte	0x6a1
 823 0603 24       		.byte	0x24
 824 0604 0A       		.uleb128 0xa
 825 0605 AA040000 		.4byte	.LASF107
 826 0609 05       		.byte	0x5
 827 060a 1317     		.2byte	0x1713
 828 060c D3000000 		.4byte	0xd3
 829 0610 0001     		.2byte	0x100
 830 0612 0A       		.uleb128 0xa
 831 0613 7D000000 		.4byte	.LASF108
 832 0617 05       		.byte	0x5
 833 0618 1417     		.2byte	0x1714
 834 061a D3000000 		.4byte	0xd3
 835 061e 0401     		.2byte	0x104
 836 0620 0A       		.uleb128 0xa
 837 0621 54080000 		.4byte	.LASF109
 838 0625 05       		.byte	0x5
 839 0626 1517     		.2byte	0x1715
 840 0628 D3000000 		.4byte	0xd3
 841 062c 0801     		.2byte	0x108
 842 062e 0A       		.uleb128 0xa
 843 062f E7060000 		.4byte	.LASF110
 844 0633 05       		.byte	0x5
 845 0634 1617     		.2byte	0x1716
 846 0636 D3000000 		.4byte	0xd3
 847 063a 0C01     		.2byte	0x10c
 848 063c 0A       		.uleb128 0xa
 849 063d C4060000 		.4byte	.LASF111
 850 0641 05       		.byte	0x5
 851 0642 1717     		.2byte	0x1717
 852 0644 D3000000 		.4byte	0xd3
 853 0648 1001     		.2byte	0x110
 854 064a 0A       		.uleb128 0xa
 855 064b 43040000 		.4byte	.LASF112
ARM GAS  /tmp/ccjNzyJ2.s 			page 16


 856 064f 05       		.byte	0x5
 857 0650 1817     		.2byte	0x1718
 858 0652 D3000000 		.4byte	0xd3
 859 0656 1401     		.2byte	0x114
 860 0658 0A       		.uleb128 0xa
 861 0659 1B040000 		.4byte	.LASF113
 862 065d 05       		.byte	0x5
 863 065e 1917     		.2byte	0x1719
 864 0660 D3000000 		.4byte	0xd3
 865 0664 1801     		.2byte	0x118
 866 0666 0A       		.uleb128 0xa
 867 0667 00040000 		.4byte	.LASF114
 868 066b 05       		.byte	0x5
 869 066c 1A17     		.2byte	0x171a
 870 066e D3000000 		.4byte	0xd3
 871 0672 1C01     		.2byte	0x11c
 872 0674 0A       		.uleb128 0xa
 873 0675 24010000 		.4byte	.LASF115
 874 0679 05       		.byte	0x5
 875 067a 1B17     		.2byte	0x171b
 876 067c C8000000 		.4byte	0xc8
 877 0680 2001     		.2byte	0x120
 878 0682 0A       		.uleb128 0xa
 879 0683 28020000 		.4byte	.LASF116
 880 0687 05       		.byte	0x5
 881 0688 1C17     		.2byte	0x171c
 882 068a B8000000 		.4byte	0xb8
 883 068e 2401     		.2byte	0x124
 884 0690 00       		.byte	0
 885 0691 06       		.uleb128 0x6
 886 0692 69000000 		.4byte	0x69
 887 0696 A1060000 		.4byte	0x6a1
 888 069a 07       		.uleb128 0x7
 889 069b DE000000 		.4byte	0xde
 890 069f 36       		.byte	0x36
 891 06a0 00       		.byte	0
 892 06a1 05       		.uleb128 0x5
 893 06a2 91060000 		.4byte	0x691
 894 06a6 0C       		.uleb128 0xc
 895 06a7 BA070000 		.4byte	.LASF117
 896 06ab 05       		.byte	0x5
 897 06ac 1D17     		.2byte	0x171d
 898 06ae 74050000 		.4byte	0x574
 899 06b2 03       		.uleb128 0x3
 900 06b3 26000000 		.4byte	.LASF118
 901 06b7 06       		.byte	0x6
 902 06b8 D4       		.byte	0xd4
 903 06b9 85000000 		.4byte	0x85
 904 06bd 03       		.uleb128 0x3
 905 06be E2000000 		.4byte	.LASF119
 906 06c2 07       		.byte	0x7
 907 06c3 2E       		.byte	0x2e
 908 06c4 97000000 		.4byte	0x97
 909 06c8 03       		.uleb128 0x3
 910 06c9 72030000 		.4byte	.LASF120
 911 06cd 07       		.byte	0x7
 912 06ce 2F       		.byte	0x2f
ARM GAS  /tmp/ccjNzyJ2.s 			page 17


 913 06cf 8C000000 		.4byte	0x8c
 914 06d3 03       		.uleb128 0x3
 915 06d4 D5010000 		.4byte	.LASF121
 916 06d8 07       		.byte	0x7
 917 06d9 30       		.byte	0x30
 918 06da 8C000000 		.4byte	0x8c
 919 06de 03       		.uleb128 0x3
 920 06df F9050000 		.4byte	.LASF122
 921 06e3 07       		.byte	0x7
 922 06e4 31       		.byte	0x31
 923 06e5 8C000000 		.4byte	0x8c
 924 06e9 03       		.uleb128 0x3
 925 06ea 27060000 		.4byte	.LASF123
 926 06ee 07       		.byte	0x7
 927 06ef 32       		.byte	0x32
 928 06f0 A2000000 		.4byte	0xa2
 929 06f4 03       		.uleb128 0x3
 930 06f5 16060000 		.4byte	.LASF124
 931 06f9 07       		.byte	0x7
 932 06fa 33       		.byte	0x33
 933 06fb 97000000 		.4byte	0x97
 934 06ff 03       		.uleb128 0x3
 935 0700 9F030000 		.4byte	.LASF125
 936 0704 07       		.byte	0x7
 937 0705 35       		.byte	0x35
 938 0706 A2000000 		.4byte	0xa2
 939 070a 03       		.uleb128 0x3
 940 070b 90070000 		.4byte	.LASF126
 941 070f 07       		.byte	0x7
 942 0710 36       		.byte	0x36
 943 0711 A2000000 		.4byte	0xa2
 944 0715 03       		.uleb128 0x3
 945 0716 D6060000 		.4byte	.LASF127
 946 071a 08       		.byte	0x8
 947 071b 2A       		.byte	0x2a
 948 071c 20070000 		.4byte	0x720
 949 0720 0D       		.uleb128 0xd
 950 0721 D6060000 		.4byte	.LASF127
 951 0725 48       		.byte	0x48
 952 0726 09       		.byte	0x9
 953 0727 5E       		.byte	0x5e
 954 0728 46080000 		.4byte	0x846
 955 072c 0E       		.uleb128 0xe
 956 072d 04       		.byte	0x4
 957 072e 09       		.byte	0x9
 958 072f 90       		.byte	0x90
 959 0730 61070000 		.4byte	0x761
 960 0734 0F       		.uleb128 0xf
 961 0735 38000000 		.4byte	.LASF128
 962 0739 09       		.byte	0x9
 963 073a 97       		.byte	0x97
 964 073b F4060000 		.4byte	0x6f4
 965 073f 0F       		.uleb128 0xf
 966 0740 A7000000 		.4byte	.LASF129
 967 0744 09       		.byte	0x9
 968 0745 9E       		.byte	0x9e
 969 0746 F4060000 		.4byte	0x6f4
ARM GAS  /tmp/ccjNzyJ2.s 			page 18


 970 074a 0F       		.uleb128 0xf
 971 074b 74080000 		.4byte	.LASF130
 972 074f 09       		.byte	0x9
 973 0750 A5       		.byte	0xa5
 974 0751 AB080000 		.4byte	0x8ab
 975 0755 0F       		.uleb128 0xf
 976 0756 9D060000 		.4byte	.LASF131
 977 075a 09       		.byte	0x9
 978 075b AC       		.byte	0xac
 979 075c FF060000 		.4byte	0x6ff
 980 0760 00       		.byte	0
 981 0761 10       		.uleb128 0x10
 982 0762 A4060000 		.4byte	.LASF132
 983 0766 09       		.byte	0x9
 984 0767 5F       		.byte	0x5f
 985 0768 FC090000 		.4byte	0x9fc
 986 076c 00       		.byte	0
 987 076d 10       		.uleb128 0x10
 988 076e 0F060000 		.4byte	.LASF133
 989 0772 09       		.byte	0x9
 990 0773 61       		.byte	0x61
 991 0774 FC090000 		.4byte	0x9fc
 992 0778 04       		.byte	0x4
 993 0779 10       		.uleb128 0x10
 994 077a E9000000 		.4byte	.LASF134
 995 077e 09       		.byte	0x9
 996 077f 63       		.byte	0x63
 997 0780 E9060000 		.4byte	0x6e9
 998 0784 08       		.byte	0x8
 999 0785 10       		.uleb128 0x10
 1000 0786 C3080000 		.4byte	.LASF135
 1001 078a 09       		.byte	0x9
 1002 078b 64       		.byte	0x64
 1003 078c 28090000 		.4byte	0x928
 1004 0790 0C       		.byte	0xc
 1005 0791 10       		.uleb128 0x10
 1006 0792 12020000 		.4byte	.LASF136
 1007 0796 09       		.byte	0x9
 1008 0797 66       		.byte	0x66
 1009 0798 FC090000 		.4byte	0x9fc
 1010 079c 10       		.byte	0x10
 1011 079d 10       		.uleb128 0x10
 1012 079e 8C060000 		.4byte	.LASF137
 1013 07a2 09       		.byte	0x9
 1014 07a3 67       		.byte	0x67
 1015 07a4 FC090000 		.4byte	0x9fc
 1016 07a8 14       		.byte	0x14
 1017 07a9 10       		.uleb128 0x10
 1018 07aa 17080000 		.4byte	.LASF138
 1019 07ae 09       		.byte	0x9
 1020 07af 6E       		.byte	0x6e
 1021 07b0 020A0000 		.4byte	0xa02
 1022 07b4 18       		.byte	0x18
 1023 07b5 10       		.uleb128 0x10
 1024 07b6 7B060000 		.4byte	.LASF139
 1025 07ba 09       		.byte	0x9
 1026 07bb 79       		.byte	0x79
ARM GAS  /tmp/ccjNzyJ2.s 			page 19


 1027 07bc D3060000 		.4byte	0x6d3
 1028 07c0 1C       		.byte	0x1c
 1029 07c1 10       		.uleb128 0x10
 1030 07c2 B4060000 		.4byte	.LASF140
 1031 07c6 09       		.byte	0x9
 1032 07c7 7D       		.byte	0x7d
 1033 07c8 C8060000 		.4byte	0x6c8
 1034 07cc 1D       		.byte	0x1d
 1035 07cd 10       		.uleb128 0x10
 1036 07ce DE010000 		.4byte	.LASF141
 1037 07d2 09       		.byte	0x9
 1038 07d3 82       		.byte	0x82
 1039 07d4 DE060000 		.4byte	0x6de
 1040 07d8 1E       		.byte	0x1e
 1041 07d9 10       		.uleb128 0x10
 1042 07da DA070000 		.4byte	.LASF142
 1043 07de 09       		.byte	0x9
 1044 07df 89       		.byte	0x89
 1045 07e0 49090000 		.4byte	0x949
 1046 07e4 20       		.byte	0x20
 1047 07e5 11       		.uleb128 0x11
 1048 07e6 705F7500 		.ascii	"p_u\000"
 1049 07ea 09       		.byte	0x9
 1050 07eb AE       		.byte	0xae
 1051 07ec 2C070000 		.4byte	0x72c
 1052 07f0 24       		.byte	0x24
 1053 07f1 10       		.uleb128 0x10
 1054 07f2 C9080000 		.4byte	.LASF143
 1055 07f6 09       		.byte	0x9
 1056 07f7 B3       		.byte	0xb3
 1057 07f8 95080000 		.4byte	0x895
 1058 07fc 28       		.byte	0x28
 1059 07fd 10       		.uleb128 0x10
 1060 07fe DA020000 		.4byte	.LASF144
 1061 0802 09       		.byte	0x9
 1062 0803 B9       		.byte	0xb9
 1063 0804 71080000 		.4byte	0x871
 1064 0808 2C       		.byte	0x2c
 1065 0809 10       		.uleb128 0x10
 1066 080a 40080000 		.4byte	.LASF145
 1067 080e 09       		.byte	0x9
 1068 080f BD       		.byte	0xbd
 1069 0810 F4060000 		.4byte	0x6f4
 1070 0814 34       		.byte	0x34
 1071 0815 10       		.uleb128 0x10
 1072 0816 F0060000 		.4byte	.LASF146
 1073 081a 09       		.byte	0x9
 1074 081b C3       		.byte	0xc3
 1075 081c FF060000 		.4byte	0x6ff
 1076 0820 38       		.byte	0x38
 1077 0821 10       		.uleb128 0x10
 1078 0822 67060000 		.4byte	.LASF147
 1079 0826 09       		.byte	0x9
 1080 0827 CA       		.byte	0xca
 1081 0828 140A0000 		.4byte	0xa14
 1082 082c 3C       		.byte	0x3c
 1083 082d 10       		.uleb128 0x10
ARM GAS  /tmp/ccjNzyJ2.s 			page 20


 1084 082e 9A070000 		.4byte	.LASF148
 1085 0832 09       		.byte	0x9
 1086 0833 CE       		.byte	0xce
 1087 0834 E9060000 		.4byte	0x6e9
 1088 0838 40       		.byte	0x40
 1089 0839 10       		.uleb128 0x10
 1090 083a 40010000 		.4byte	.LASF149
 1091 083e 09       		.byte	0x9
 1092 083f D4       		.byte	0xd4
 1093 0840 AB080000 		.4byte	0x8ab
 1094 0844 44       		.byte	0x44
 1095 0845 00       		.byte	0
 1096 0846 12       		.uleb128 0x12
 1097 0847 08       		.byte	0x8
 1098 0848 08       		.byte	0x8
 1099 0849 61       		.byte	0x61
 1100 084a B2050000 		.4byte	.LASF151
 1101 084e 6B080000 		.4byte	0x86b
 1102 0852 10       		.uleb128 0x10
 1103 0853 A4060000 		.4byte	.LASF132
 1104 0857 08       		.byte	0x8
 1105 0858 62       		.byte	0x62
 1106 0859 6B080000 		.4byte	0x86b
 1107 085d 00       		.byte	0
 1108 085e 10       		.uleb128 0x10
 1109 085f 0F060000 		.4byte	.LASF133
 1110 0863 08       		.byte	0x8
 1111 0864 64       		.byte	0x64
 1112 0865 6B080000 		.4byte	0x86b
 1113 0869 04       		.byte	0x4
 1114 086a 00       		.byte	0
 1115 086b 13       		.uleb128 0x13
 1116 086c 04       		.byte	0x4
 1117 086d 15070000 		.4byte	0x715
 1118 0871 03       		.uleb128 0x3
 1119 0872 DB030000 		.4byte	.LASF150
 1120 0876 08       		.byte	0x8
 1121 0877 66       		.byte	0x66
 1122 0878 46080000 		.4byte	0x846
 1123 087c 12       		.uleb128 0x12
 1124 087d 04       		.byte	0x4
 1125 087e 08       		.byte	0x8
 1126 087f 6B       		.byte	0x6b
 1127 0880 A7010000 		.4byte	.LASF152
 1128 0884 95080000 		.4byte	0x895
 1129 0888 10       		.uleb128 0x10
 1130 0889 A4060000 		.4byte	.LASF132
 1131 088d 08       		.byte	0x8
 1132 088e 6D       		.byte	0x6d
 1133 088f 6B080000 		.4byte	0x86b
 1134 0893 00       		.byte	0
 1135 0894 00       		.byte	0
 1136 0895 03       		.uleb128 0x3
 1137 0896 93030000 		.4byte	.LASF153
 1138 089a 08       		.byte	0x8
 1139 089b 70       		.byte	0x70
 1140 089c 7C080000 		.4byte	0x87c
ARM GAS  /tmp/ccjNzyJ2.s 			page 21


 1141 08a0 03       		.uleb128 0x3
 1142 08a1 48020000 		.4byte	.LASF154
 1143 08a5 0A       		.byte	0xa
 1144 08a6 D7       		.byte	0xd7
 1145 08a7 AB080000 		.4byte	0x8ab
 1146 08ab 14       		.uleb128 0x14
 1147 08ac 04       		.byte	0x4
 1148 08ad 0D       		.uleb128 0xd
 1149 08ae EA070000 		.4byte	.LASF155
 1150 08b2 24       		.byte	0x24
 1151 08b3 0A       		.byte	0xa
 1152 08b4 FE       		.byte	0xfe
 1153 08b5 28090000 		.4byte	0x928
 1154 08b9 15       		.uleb128 0x15
 1155 08ba 723400   		.ascii	"r4\000"
 1156 08bd 0A       		.byte	0xa
 1157 08be 1101     		.2byte	0x111
 1158 08c0 A0080000 		.4byte	0x8a0
 1159 08c4 00       		.byte	0
 1160 08c5 15       		.uleb128 0x15
 1161 08c6 723500   		.ascii	"r5\000"
 1162 08c9 0A       		.byte	0xa
 1163 08ca 1201     		.2byte	0x112
 1164 08cc A0080000 		.4byte	0x8a0
 1165 08d0 04       		.byte	0x4
 1166 08d1 15       		.uleb128 0x15
 1167 08d2 723600   		.ascii	"r6\000"
 1168 08d5 0A       		.byte	0xa
 1169 08d6 1301     		.2byte	0x113
 1170 08d8 A0080000 		.4byte	0x8a0
 1171 08dc 08       		.byte	0x8
 1172 08dd 15       		.uleb128 0x15
 1173 08de 723700   		.ascii	"r7\000"
 1174 08e1 0A       		.byte	0xa
 1175 08e2 1401     		.2byte	0x114
 1176 08e4 A0080000 		.4byte	0x8a0
 1177 08e8 0C       		.byte	0xc
 1178 08e9 15       		.uleb128 0x15
 1179 08ea 723800   		.ascii	"r8\000"
 1180 08ed 0A       		.byte	0xa
 1181 08ee 1501     		.2byte	0x115
 1182 08f0 A0080000 		.4byte	0x8a0
 1183 08f4 10       		.byte	0x10
 1184 08f5 15       		.uleb128 0x15
 1185 08f6 723900   		.ascii	"r9\000"
 1186 08f9 0A       		.byte	0xa
 1187 08fa 1601     		.2byte	0x116
 1188 08fc A0080000 		.4byte	0x8a0
 1189 0900 14       		.byte	0x14
 1190 0901 15       		.uleb128 0x15
 1191 0902 72313000 		.ascii	"r10\000"
 1192 0906 0A       		.byte	0xa
 1193 0907 1701     		.2byte	0x117
 1194 0909 A0080000 		.4byte	0x8a0
 1195 090d 18       		.byte	0x18
 1196 090e 15       		.uleb128 0x15
 1197 090f 72313100 		.ascii	"r11\000"
ARM GAS  /tmp/ccjNzyJ2.s 			page 22


 1198 0913 0A       		.byte	0xa
 1199 0914 1801     		.2byte	0x118
 1200 0916 A0080000 		.4byte	0x8a0
 1201 091a 1C       		.byte	0x1c
 1202 091b 15       		.uleb128 0x15
 1203 091c 6C7200   		.ascii	"lr\000"
 1204 091f 0A       		.byte	0xa
 1205 0920 1901     		.2byte	0x119
 1206 0922 A0080000 		.4byte	0x8a0
 1207 0926 20       		.byte	0x20
 1208 0927 00       		.byte	0
 1209 0928 16       		.uleb128 0x16
 1210 0929 26030000 		.4byte	.LASF156
 1211 092d 04       		.byte	0x4
 1212 092e 0A       		.byte	0xa
 1213 092f 2301     		.2byte	0x123
 1214 0931 43090000 		.4byte	0x943
 1215 0935 15       		.uleb128 0x15
 1216 0936 72313300 		.ascii	"r13\000"
 1217 093a 0A       		.byte	0xa
 1218 093b 2401     		.2byte	0x124
 1219 093d 43090000 		.4byte	0x943
 1220 0941 00       		.byte	0
 1221 0942 00       		.byte	0
 1222 0943 13       		.uleb128 0x13
 1223 0944 04       		.byte	0x4
 1224 0945 AD080000 		.4byte	0x8ad
 1225 0949 05       		.uleb128 0x5
 1226 094a 0A070000 		.4byte	0x70a
 1227 094e 0D       		.uleb128 0xd
 1228 094f B6030000 		.4byte	.LASF157
 1229 0953 10       		.byte	0x10
 1230 0954 0B       		.byte	0xb
 1231 0955 2C       		.byte	0x2c
 1232 0956 7F090000 		.4byte	0x97f
 1233 095a 10       		.uleb128 0x10
 1234 095b 50010000 		.4byte	.LASF158
 1235 095f 0B       		.byte	0xb
 1236 0960 2D       		.byte	0x2d
 1237 0961 71080000 		.4byte	0x871
 1238 0965 00       		.byte	0
 1239 0966 10       		.uleb128 0x10
 1240 0967 BB080000 		.4byte	.LASF159
 1241 096b 0B       		.byte	0xb
 1242 096c 2F       		.byte	0x2f
 1243 096d 6B080000 		.4byte	0x86b
 1244 0971 08       		.byte	0x8
 1245 0972 10       		.uleb128 0x10
 1246 0973 89070000 		.4byte	.LASF160
 1247 0977 0B       		.byte	0xb
 1248 0978 31       		.byte	0x31
 1249 0979 7F090000 		.4byte	0x97f
 1250 097d 0C       		.byte	0xc
 1251 097e 00       		.byte	0
 1252 097f 13       		.uleb128 0x13
 1253 0980 04       		.byte	0x4
 1254 0981 4E090000 		.4byte	0x94e
ARM GAS  /tmp/ccjNzyJ2.s 			page 23


 1255 0985 03       		.uleb128 0x3
 1256 0986 B6030000 		.4byte	.LASF157
 1257 098a 0B       		.byte	0xb
 1258 098b 33       		.byte	0x33
 1259 098c 4E090000 		.4byte	0x94e
 1260 0990 03       		.uleb128 0x3
 1261 0991 66080000 		.4byte	.LASF161
 1262 0995 0C       		.byte	0xc
 1263 0996 29       		.byte	0x29
 1264 0997 9B090000 		.4byte	0x99b
 1265 099b 0D       		.uleb128 0xd
 1266 099c 66080000 		.4byte	.LASF161
 1267 09a0 0C       		.byte	0xc
 1268 09a1 0C       		.byte	0xc
 1269 09a2 2E       		.byte	0x2e
 1270 09a3 CC090000 		.4byte	0x9cc
 1271 09a7 10       		.uleb128 0x10
 1272 09a8 50030000 		.4byte	.LASF162
 1273 09ac 0C       		.byte	0xc
 1274 09ad 2F       		.byte	0x2f
 1275 09ae CC090000 		.4byte	0x9cc
 1276 09b2 00       		.byte	0
 1277 09b3 10       		.uleb128 0x10
 1278 09b4 7B080000 		.4byte	.LASF163
 1279 09b8 0C       		.byte	0xc
 1280 09b9 32       		.byte	0x32
 1281 09ba 6B080000 		.4byte	0x86b
 1282 09be 04       		.byte	0x4
 1283 09bf 10       		.uleb128 0x10
 1284 09c0 F8030000 		.4byte	.LASF164
 1285 09c4 0C       		.byte	0xc
 1286 09c5 34       		.byte	0x34
 1287 09c6 FF060000 		.4byte	0x6ff
 1288 09ca 08       		.byte	0x8
 1289 09cb 00       		.byte	0
 1290 09cc 13       		.uleb128 0x13
 1291 09cd 04       		.byte	0x4
 1292 09ce 9B090000 		.4byte	0x99b
 1293 09d2 0D       		.uleb128 0xd
 1294 09d3 86020000 		.4byte	.LASF165
 1295 09d7 04       		.byte	0x4
 1296 09d8 0C       		.byte	0xc
 1297 09d9 3C       		.byte	0x3c
 1298 09da EB090000 		.4byte	0x9eb
 1299 09de 10       		.uleb128 0x10
 1300 09df 1E080000 		.4byte	.LASF166
 1301 09e3 0C       		.byte	0xc
 1302 09e4 3D       		.byte	0x3d
 1303 09e5 EB090000 		.4byte	0x9eb
 1304 09e9 00       		.byte	0
 1305 09ea 00       		.byte	0
 1306 09eb 13       		.uleb128 0x13
 1307 09ec 04       		.byte	0x4
 1308 09ed 90090000 		.4byte	0x990
 1309 09f1 03       		.uleb128 0x3
 1310 09f2 86020000 		.4byte	.LASF165
 1311 09f6 0C       		.byte	0xc
ARM GAS  /tmp/ccjNzyJ2.s 			page 24


 1312 09f7 40       		.byte	0x40
 1313 09f8 D2090000 		.4byte	0x9d2
 1314 09fc 13       		.uleb128 0x13
 1315 09fd 04       		.byte	0x4
 1316 09fe 20070000 		.4byte	0x720
 1317 0a02 13       		.uleb128 0x13
 1318 0a03 04       		.byte	0x4
 1319 0a04 080A0000 		.4byte	0xa08
 1320 0a08 17       		.uleb128 0x17
 1321 0a09 0D0A0000 		.4byte	0xa0d
 1322 0a0d 02       		.uleb128 0x2
 1323 0a0e 01       		.byte	0x1
 1324 0a0f 08       		.byte	0x8
 1325 0a10 61070000 		.4byte	.LASF167
 1326 0a14 13       		.uleb128 0x13
 1327 0a15 04       		.byte	0x4
 1328 0a16 85090000 		.4byte	0x985
 1329 0a1a 03       		.uleb128 0x3
 1330 0a1b CE030000 		.4byte	.LASF168
 1331 0a1f 0D       		.byte	0xd
 1332 0a20 37       		.byte	0x37
 1333 0a21 250A0000 		.4byte	0xa25
 1334 0a25 0D       		.uleb128 0xd
 1335 0a26 CE030000 		.4byte	.LASF168
 1336 0a2a 20       		.byte	0x20
 1337 0a2b 0D       		.byte	0xd
 1338 0a2c 45       		.byte	0x45
 1339 0a2d 860A0000 		.4byte	0xa86
 1340 0a31 10       		.uleb128 0x10
 1341 0a32 F6000000 		.4byte	.LASF169
 1342 0a36 0D       		.byte	0xd
 1343 0a37 46       		.byte	0x46
 1344 0a38 71080000 		.4byte	0x871
 1345 0a3c 00       		.byte	0
 1346 0a3d 10       		.uleb128 0x10
 1347 0a3e 25040000 		.4byte	.LASF170
 1348 0a42 0D       		.byte	0xd
 1349 0a43 47       		.byte	0x47
 1350 0a44 B2060000 		.4byte	0x6b2
 1351 0a48 08       		.byte	0x8
 1352 0a49 10       		.uleb128 0x10
 1353 0a4a E5010000 		.4byte	.LASF171
 1354 0a4e 0D       		.byte	0xd
 1355 0a4f 48       		.byte	0x48
 1356 0a50 A80A0000 		.4byte	0xaa8
 1357 0a54 0C       		.byte	0xc
 1358 0a55 10       		.uleb128 0x10
 1359 0a56 11080000 		.4byte	.LASF172
 1360 0a5a 0D       		.byte	0xd
 1361 0a5b 49       		.byte	0x49
 1362 0a5c A80A0000 		.4byte	0xaa8
 1363 0a60 10       		.byte	0x10
 1364 0a61 10       		.uleb128 0x10
 1365 0a62 EE010000 		.4byte	.LASF173
 1366 0a66 0D       		.byte	0xd
 1367 0a67 4B       		.byte	0x4b
 1368 0a68 A80A0000 		.4byte	0xaa8
ARM GAS  /tmp/ccjNzyJ2.s 			page 25


 1369 0a6c 14       		.byte	0x14
 1370 0a6d 10       		.uleb128 0x10
 1371 0a6e 2F060000 		.4byte	.LASF174
 1372 0a72 0D       		.byte	0xd
 1373 0a73 4C       		.byte	0x4c
 1374 0a74 A80A0000 		.4byte	0xaa8
 1375 0a78 18       		.byte	0x18
 1376 0a79 10       		.uleb128 0x10
 1377 0a7a 2E080000 		.4byte	.LASF175
 1378 0a7e 0D       		.byte	0xd
 1379 0a7f 4D       		.byte	0x4d
 1380 0a80 860A0000 		.4byte	0xa86
 1381 0a84 1C       		.byte	0x1c
 1382 0a85 00       		.byte	0
 1383 0a86 03       		.uleb128 0x3
 1384 0a87 C4030000 		.4byte	.LASF176
 1385 0a8b 0D       		.byte	0xd
 1386 0a8c 3A       		.byte	0x3a
 1387 0a8d 910A0000 		.4byte	0xa91
 1388 0a91 13       		.uleb128 0x13
 1389 0a92 04       		.byte	0x4
 1390 0a93 970A0000 		.4byte	0xa97
 1391 0a97 18       		.uleb128 0x18
 1392 0a98 A20A0000 		.4byte	0xaa2
 1393 0a9c 19       		.uleb128 0x19
 1394 0a9d A20A0000 		.4byte	0xaa2
 1395 0aa1 00       		.byte	0
 1396 0aa2 13       		.uleb128 0x13
 1397 0aa3 04       		.byte	0x4
 1398 0aa4 1A0A0000 		.4byte	0xa1a
 1399 0aa8 13       		.uleb128 0x13
 1400 0aa9 04       		.byte	0x4
 1401 0aaa 8C000000 		.4byte	0x8c
 1402 0aae 03       		.uleb128 0x3
 1403 0aaf AB030000 		.4byte	.LASF177
 1404 0ab3 0D       		.byte	0xd
 1405 0ab4 76       		.byte	0x76
 1406 0ab5 1A0A0000 		.4byte	0xa1a
 1407 0ab9 03       		.uleb128 0x3
 1408 0aba 45000000 		.4byte	.LASF178
 1409 0abe 0D       		.byte	0xd
 1410 0abf E6       		.byte	0xe6
 1411 0ac0 1A0A0000 		.4byte	0xa1a
 1412 0ac4 1A       		.uleb128 0x1a
 1413 0ac5 B2060000 		.4byte	0x6b2
 1414 0ac9 DD0A0000 		.4byte	0xadd
 1415 0acd 19       		.uleb128 0x19
 1416 0ace AB080000 		.4byte	0x8ab
 1417 0ad2 19       		.uleb128 0x19
 1418 0ad3 DD0A0000 		.4byte	0xadd
 1419 0ad7 19       		.uleb128 0x19
 1420 0ad8 B2060000 		.4byte	0x6b2
 1421 0adc 00       		.byte	0
 1422 0add 13       		.uleb128 0x13
 1423 0ade 04       		.byte	0x4
 1424 0adf E30A0000 		.4byte	0xae3
 1425 0ae3 17       		.uleb128 0x17
ARM GAS  /tmp/ccjNzyJ2.s 			page 26


 1426 0ae4 8C000000 		.4byte	0x8c
 1427 0ae8 13       		.uleb128 0x13
 1428 0ae9 04       		.byte	0x4
 1429 0aea C40A0000 		.4byte	0xac4
 1430 0aee 1A       		.uleb128 0x1a
 1431 0aef B2060000 		.4byte	0x6b2
 1432 0af3 070B0000 		.4byte	0xb07
 1433 0af7 19       		.uleb128 0x19
 1434 0af8 AB080000 		.4byte	0x8ab
 1435 0afc 19       		.uleb128 0x19
 1436 0afd A80A0000 		.4byte	0xaa8
 1437 0b01 19       		.uleb128 0x19
 1438 0b02 B2060000 		.4byte	0x6b2
 1439 0b06 00       		.byte	0
 1440 0b07 13       		.uleb128 0x13
 1441 0b08 04       		.byte	0x4
 1442 0b09 EE0A0000 		.4byte	0xaee
 1443 0b0d 1A       		.uleb128 0x1a
 1444 0b0e BD060000 		.4byte	0x6bd
 1445 0b12 1C0B0000 		.4byte	0xb1c
 1446 0b16 19       		.uleb128 0x19
 1447 0b17 AB080000 		.4byte	0x8ab
 1448 0b1b 00       		.byte	0
 1449 0b1c 13       		.uleb128 0x13
 1450 0b1d 04       		.byte	0x4
 1451 0b1e 0D0B0000 		.4byte	0xb0d
 1452 0b22 1A       		.uleb128 0x1a
 1453 0b23 F4060000 		.4byte	0x6f4
 1454 0b27 3B0B0000 		.4byte	0xb3b
 1455 0b2b 19       		.uleb128 0x19
 1456 0b2c AB080000 		.4byte	0x8ab
 1457 0b30 19       		.uleb128 0x19
 1458 0b31 8C000000 		.4byte	0x8c
 1459 0b35 19       		.uleb128 0x19
 1460 0b36 0A070000 		.4byte	0x70a
 1461 0b3a 00       		.byte	0
 1462 0b3b 13       		.uleb128 0x13
 1463 0b3c 04       		.byte	0x4
 1464 0b3d 220B0000 		.4byte	0xb22
 1465 0b41 1A       		.uleb128 0x1a
 1466 0b42 F4060000 		.4byte	0x6f4
 1467 0b46 550B0000 		.4byte	0xb55
 1468 0b4a 19       		.uleb128 0x19
 1469 0b4b AB080000 		.4byte	0x8ab
 1470 0b4f 19       		.uleb128 0x19
 1471 0b50 0A070000 		.4byte	0x70a
 1472 0b54 00       		.byte	0
 1473 0b55 13       		.uleb128 0x13
 1474 0b56 04       		.byte	0x4
 1475 0b57 410B0000 		.4byte	0xb41
 1476 0b5b 1A       		.uleb128 0x1a
 1477 0b5c B2060000 		.4byte	0x6b2
 1478 0b60 790B0000 		.4byte	0xb79
 1479 0b64 19       		.uleb128 0x19
 1480 0b65 AB080000 		.4byte	0x8ab
 1481 0b69 19       		.uleb128 0x19
 1482 0b6a DD0A0000 		.4byte	0xadd
ARM GAS  /tmp/ccjNzyJ2.s 			page 27


 1483 0b6e 19       		.uleb128 0x19
 1484 0b6f B2060000 		.4byte	0x6b2
 1485 0b73 19       		.uleb128 0x19
 1486 0b74 0A070000 		.4byte	0x70a
 1487 0b78 00       		.byte	0
 1488 0b79 13       		.uleb128 0x13
 1489 0b7a 04       		.byte	0x4
 1490 0b7b 5B0B0000 		.4byte	0xb5b
 1491 0b7f 1A       		.uleb128 0x1a
 1492 0b80 B2060000 		.4byte	0x6b2
 1493 0b84 9D0B0000 		.4byte	0xb9d
 1494 0b88 19       		.uleb128 0x19
 1495 0b89 AB080000 		.4byte	0x8ab
 1496 0b8d 19       		.uleb128 0x19
 1497 0b8e A80A0000 		.4byte	0xaa8
 1498 0b92 19       		.uleb128 0x19
 1499 0b93 B2060000 		.4byte	0x6b2
 1500 0b97 19       		.uleb128 0x19
 1501 0b98 0A070000 		.4byte	0x70a
 1502 0b9c 00       		.byte	0
 1503 0b9d 13       		.uleb128 0x13
 1504 0b9e 04       		.byte	0x4
 1505 0b9f 7F0B0000 		.4byte	0xb7f
 1506 0ba3 0C       		.uleb128 0xc
 1507 0ba4 66040000 		.4byte	.LASF179
 1508 0ba8 0E       		.byte	0xe
 1509 0ba9 0B01     		.2byte	0x10b
 1510 0bab AD000000 		.4byte	0xad
 1511 0baf 1A       		.uleb128 0x1a
 1512 0bb0 A30B0000 		.4byte	0xba3
 1513 0bb4 BE0B0000 		.4byte	0xbbe
 1514 0bb8 19       		.uleb128 0x19
 1515 0bb9 AB080000 		.4byte	0x8ab
 1516 0bbd 00       		.byte	0
 1517 0bbe 13       		.uleb128 0x13
 1518 0bbf 04       		.byte	0x4
 1519 0bc0 AF0B0000 		.4byte	0xbaf
 1520 0bc4 03       		.uleb128 0x3
 1521 0bc5 67000000 		.4byte	.LASF180
 1522 0bc9 0F       		.byte	0xf
 1523 0bca 5D       		.byte	0x5d
 1524 0bcb A2000000 		.4byte	0xa2
 1525 0bcf 1B       		.uleb128 0x1b
 1526 0bd0 01       		.byte	0x1
 1527 0bd1 10       		.byte	0x10
 1528 0bd2 64       		.byte	0x64
 1529 0bd3 2D000000 		.4byte	.LASF213
 1530 0bd7 EE0B0000 		.4byte	0xbee
 1531 0bdb 1C       		.uleb128 0x1c
 1532 0bdc FB060000 		.4byte	.LASF181
 1533 0be0 00       		.sleb128 0
 1534 0be1 1C       		.uleb128 0x1c
 1535 0be2 CE060000 		.4byte	.LASF182
 1536 0be6 01       		.sleb128 1
 1537 0be7 1C       		.uleb128 0x1c
 1538 0be8 F1070000 		.4byte	.LASF183
 1539 0bec 02       		.sleb128 2
ARM GAS  /tmp/ccjNzyJ2.s 			page 28


 1540 0bed 00       		.byte	0
 1541 0bee 03       		.uleb128 0x3
 1542 0bef 2B070000 		.4byte	.LASF184
 1543 0bf3 10       		.byte	0x10
 1544 0bf4 68       		.byte	0x68
 1545 0bf5 CF0B0000 		.4byte	0xbcf
 1546 0bf9 03       		.uleb128 0x3
 1547 0bfa 35070000 		.4byte	.LASF185
 1548 0bfe 10       		.byte	0x10
 1549 0bff 6D       		.byte	0x6d
 1550 0c00 040C0000 		.4byte	0xc04
 1551 0c04 0D       		.uleb128 0xd
 1552 0c05 35070000 		.4byte	.LASF185
 1553 0c09 74       		.byte	0x74
 1554 0c0a 10       		.byte	0x10
 1555 0c0b 87       		.byte	0x87
 1556 0c0c 7B0C0000 		.4byte	0xc7b
 1557 0c10 11       		.uleb128 0x11
 1558 0c11 766D7400 		.ascii	"vmt\000"
 1559 0c15 10       		.byte	0x10
 1560 0c16 89       		.byte	0x89
 1561 0c17 240D0000 		.4byte	0xd24
 1562 0c1b 00       		.byte	0
 1563 0c1c 10       		.uleb128 0x10
 1564 0c1d 20030000 		.4byte	.LASF186
 1565 0c21 10       		.byte	0x10
 1566 0c22 8A       		.byte	0x8a
 1567 0c23 F1090000 		.4byte	0x9f1
 1568 0c27 04       		.byte	0x4
 1569 0c28 10       		.uleb128 0x10
 1570 0c29 4E080000 		.4byte	.LASF187
 1571 0c2d 10       		.byte	0x10
 1572 0c2e 8A       		.byte	0x8a
 1573 0c2f A30B0000 		.4byte	0xba3
 1574 0c33 08       		.byte	0x8
 1575 0c34 10       		.uleb128 0x10
 1576 0c35 BD010000 		.4byte	.LASF188
 1577 0c39 10       		.byte	0x10
 1578 0c3a 8A       		.byte	0x8a
 1579 0c3b EE0B0000 		.4byte	0xbee
 1580 0c3f 0C       		.byte	0xc
 1581 0c40 10       		.uleb128 0x10
 1582 0c41 D3020000 		.4byte	.LASF189
 1583 0c45 10       		.byte	0x10
 1584 0c46 8A       		.byte	0x8a
 1585 0c47 AE0A0000 		.4byte	0xaae
 1586 0c4b 10       		.byte	0x10
 1587 0c4c 10       		.uleb128 0x10
 1588 0c4d 49030000 		.4byte	.LASF190
 1589 0c51 10       		.byte	0x10
 1590 0c52 8A       		.byte	0x8a
 1591 0c53 B90A0000 		.4byte	0xab9
 1592 0c57 30       		.byte	0x30
 1593 0c58 11       		.uleb128 0x11
 1594 0c59 696200   		.ascii	"ib\000"
 1595 0c5c 10       		.byte	0x10
 1596 0c5d 8A       		.byte	0x8a
ARM GAS  /tmp/ccjNzyJ2.s 			page 29


 1597 0c5e 2F0D0000 		.4byte	0xd2f
 1598 0c62 50       		.byte	0x50
 1599 0c63 11       		.uleb128 0x11
 1600 0c64 6F6200   		.ascii	"ob\000"
 1601 0c67 10       		.byte	0x10
 1602 0c68 8A       		.byte	0x8a
 1603 0c69 2F0D0000 		.4byte	0xd2f
 1604 0c6d 60       		.byte	0x60
 1605 0c6e 10       		.uleb128 0x10
 1606 0c6f D8050000 		.4byte	.LASF191
 1607 0c73 10       		.byte	0x10
 1608 0c74 8A       		.byte	0x8a
 1609 0c75 3F0D0000 		.4byte	0xd3f
 1610 0c79 70       		.byte	0x70
 1611 0c7a 00       		.byte	0
 1612 0c7b 12       		.uleb128 0x12
 1613 0c7c 08       		.byte	0x8
 1614 0c7d 11       		.byte	0x11
 1615 0c7e 58       		.byte	0x58
 1616 0c7f 02080000 		.4byte	.LASF192
 1617 0c83 A00C0000 		.4byte	0xca0
 1618 0c87 10       		.uleb128 0x10
 1619 0c88 BF070000 		.4byte	.LASF193
 1620 0c8c 11       		.byte	0x11
 1621 0c8d 5D       		.byte	0x5d
 1622 0c8e A2000000 		.4byte	0xa2
 1623 0c92 00       		.byte	0
 1624 0c93 10       		.uleb128 0x10
 1625 0c94 38040000 		.4byte	.LASF194
 1626 0c98 11       		.byte	0x11
 1627 0c99 62       		.byte	0x62
 1628 0c9a A2000000 		.4byte	0xa2
 1629 0c9e 04       		.byte	0x4
 1630 0c9f 00       		.byte	0
 1631 0ca0 03       		.uleb128 0x3
 1632 0ca1 CB050000 		.4byte	.LASF195
 1633 0ca5 11       		.byte	0x11
 1634 0ca6 63       		.byte	0x63
 1635 0ca7 7B0C0000 		.4byte	0xc7b
 1636 0cab 0D       		.uleb128 0xd
 1637 0cac BB020000 		.4byte	.LASF196
 1638 0cb0 24       		.byte	0x24
 1639 0cb1 10       		.byte	0x10
 1640 0cb2 7C       		.byte	0x7c
 1641 0cb3 240D0000 		.4byte	0xd24
 1642 0cb7 10       		.uleb128 0x10
 1643 0cb8 3F000000 		.4byte	.LASF197
 1644 0cbc 10       		.byte	0x10
 1645 0cbd 7D       		.byte	0x7d
 1646 0cbe E80A0000 		.4byte	0xae8
 1647 0cc2 00       		.byte	0
 1648 0cc3 10       		.uleb128 0x10
 1649 0cc4 5C070000 		.4byte	.LASF198
 1650 0cc8 10       		.byte	0x10
 1651 0cc9 7D       		.byte	0x7d
 1652 0cca 070B0000 		.4byte	0xb07
 1653 0cce 04       		.byte	0x4
ARM GAS  /tmp/ccjNzyJ2.s 			page 30


 1654 0ccf 10       		.uleb128 0x10
 1655 0cd0 1A020000 		.4byte	.LASF199
 1656 0cd4 10       		.byte	0x10
 1657 0cd5 7D       		.byte	0x7d
 1658 0cd6 1C0B0000 		.4byte	0xb1c
 1659 0cda 08       		.byte	0x8
 1660 0cdb 10       		.uleb128 0x10
 1661 0cdc A4080000 		.4byte	.LASF200
 1662 0ce0 10       		.byte	0x10
 1663 0ce1 7D       		.byte	0x7d
 1664 0ce2 1C0B0000 		.4byte	0xb1c
 1665 0ce6 0C       		.byte	0xc
 1666 0ce7 11       		.uleb128 0x11
 1667 0ce8 70757400 		.ascii	"put\000"
 1668 0cec 10       		.byte	0x10
 1669 0ced 7D       		.byte	0x7d
 1670 0cee 3B0B0000 		.4byte	0xb3b
 1671 0cf2 10       		.byte	0x10
 1672 0cf3 11       		.uleb128 0x11
 1673 0cf4 67657400 		.ascii	"get\000"
 1674 0cf8 10       		.byte	0x10
 1675 0cf9 7D       		.byte	0x7d
 1676 0cfa 550B0000 		.4byte	0xb55
 1677 0cfe 14       		.byte	0x14
 1678 0cff 10       		.uleb128 0x10
 1679 0d00 63030000 		.4byte	.LASF201
 1680 0d04 10       		.byte	0x10
 1681 0d05 7D       		.byte	0x7d
 1682 0d06 790B0000 		.4byte	0xb79
 1683 0d0a 18       		.byte	0x18
 1684 0d0b 10       		.uleb128 0x10
 1685 0d0c F0000000 		.4byte	.LASF202
 1686 0d10 10       		.byte	0x10
 1687 0d11 7D       		.byte	0x7d
 1688 0d12 9D0B0000 		.4byte	0xb9d
 1689 0d16 1C       		.byte	0x1c
 1690 0d17 10       		.uleb128 0x10
 1691 0d18 5D040000 		.4byte	.LASF203
 1692 0d1c 10       		.byte	0x10
 1693 0d1d 7D       		.byte	0x7d
 1694 0d1e BE0B0000 		.4byte	0xbbe
 1695 0d22 20       		.byte	0x20
 1696 0d23 00       		.byte	0
 1697 0d24 13       		.uleb128 0x13
 1698 0d25 04       		.byte	0x4
 1699 0d26 2A0D0000 		.4byte	0xd2a
 1700 0d2a 17       		.uleb128 0x17
 1701 0d2b AB0C0000 		.4byte	0xcab
 1702 0d2f 06       		.uleb128 0x6
 1703 0d30 37000000 		.4byte	0x37
 1704 0d34 3F0D0000 		.4byte	0xd3f
 1705 0d38 07       		.uleb128 0x7
 1706 0d39 DE000000 		.4byte	0xde
 1707 0d3d 0F       		.byte	0xf
 1708 0d3e 00       		.byte	0
 1709 0d3f 13       		.uleb128 0x13
 1710 0d40 04       		.byte	0x4
ARM GAS  /tmp/ccjNzyJ2.s 			page 31


 1711 0d41 A6060000 		.4byte	0x6a6
 1712 0d45 1D       		.uleb128 0x1d
 1713 0d46 3E040000 		.4byte	.LASF214
 1714 0d4a 01       		.byte	0x1
 1715 0d4b 24       		.byte	0x24
 1716 0d4c 7E000000 		.4byte	0x7e
 1717 0d50 00000000 		.4byte	.LFB37
 1718 0d54 60000000 		.4byte	.LFE37-.LFB37
 1719 0d58 01       		.uleb128 0x1
 1720 0d59 9C       		.byte	0x9c
 1721 0d5a DC0D0000 		.4byte	0xddc
 1722 0d5e 1E       		.uleb128 0x1e
 1723 0d5f 12000000 		.4byte	.LBB3
 1724 0d63 4E000000 		.4byte	.LBE3-.LBB3
 1725 0d67 BA0D0000 		.4byte	0xdba
 1726 0d6b 1F       		.uleb128 0x1f
 1727 0d6c 6300     		.ascii	"c\000"
 1728 0d6e 01       		.byte	0x1
 1729 0d6f 2D       		.byte	0x2d
 1730 0d70 7E000000 		.4byte	0x7e
 1731 0d74 20       		.uleb128 0x20
 1732 0d75 1A000000 		.4byte	.LVL3
 1733 0d79 130E0000 		.4byte	0xe13
 1734 0d7d 880D0000 		.4byte	0xd88
 1735 0d81 21       		.uleb128 0x21
 1736 0d82 01       		.uleb128 0x1
 1737 0d83 50       		.byte	0x50
 1738 0d84 02       		.uleb128 0x2
 1739 0d85 08       		.byte	0x8
 1740 0d86 64       		.byte	0x64
 1741 0d87 00       		.byte	0
 1742 0d88 20       		.uleb128 0x20
 1743 0d89 24000000 		.4byte	.LVL4
 1744 0d8d 250E0000 		.4byte	0xe25
 1745 0d91 9C0D0000 		.4byte	0xd9c
 1746 0d95 21       		.uleb128 0x21
 1747 0d96 01       		.uleb128 0x1
 1748 0d97 51       		.byte	0x51
 1749 0d98 02       		.uleb128 0x2
 1750 0d99 09       		.byte	0x9
 1751 0d9a FF       		.byte	0xff
 1752 0d9b 00       		.byte	0
 1753 0d9c 20       		.uleb128 0x20
 1754 0d9d 2E000000 		.4byte	.LVL5
 1755 0da1 250E0000 		.4byte	0xe25
 1756 0da5 B00D0000 		.4byte	0xdb0
 1757 0da9 21       		.uleb128 0x21
 1758 0daa 01       		.uleb128 0x1
 1759 0dab 51       		.byte	0x51
 1760 0dac 02       		.uleb128 0x2
 1761 0dad 09       		.byte	0x9
 1762 0dae FF       		.byte	0xff
 1763 0daf 00       		.byte	0
 1764 0db0 22       		.uleb128 0x22
 1765 0db1 46000000 		.4byte	.LVL6
 1766 0db5 250E0000 		.4byte	0xe25
 1767 0db9 00       		.byte	0
ARM GAS  /tmp/ccjNzyJ2.s 			page 32


 1768 0dba 22       		.uleb128 0x22
 1769 0dbb 06000000 		.4byte	.LVL0
 1770 0dbf 460E0000 		.4byte	0xe46
 1771 0dc3 22       		.uleb128 0x22
 1772 0dc4 0A000000 		.4byte	.LVL1
 1773 0dc8 4D0E0000 		.4byte	0xe4d
 1774 0dcc 23       		.uleb128 0x23
 1775 0dcd 12000000 		.4byte	.LVL2
 1776 0dd1 540E0000 		.4byte	0xe54
 1777 0dd5 21       		.uleb128 0x21
 1778 0dd6 01       		.uleb128 0x1
 1779 0dd7 51       		.byte	0x51
 1780 0dd8 01       		.uleb128 0x1
 1781 0dd9 30       		.byte	0x30
 1782 0dda 00       		.byte	0
 1783 0ddb 00       		.byte	0
 1784 0ddc 24       		.uleb128 0x24
 1785 0ddd C3000000 		.4byte	.LASF204
 1786 0de1 14       		.byte	0x14
 1787 0de2 CE06     		.2byte	0x6ce
 1788 0de4 E80D0000 		.4byte	0xde8
 1789 0de8 05       		.uleb128 0x5
 1790 0de9 7E000000 		.4byte	0x7e
 1791 0ded 25       		.uleb128 0x25
 1792 0dee 53443200 		.ascii	"SD2\000"
 1793 0df2 11       		.byte	0x11
 1794 0df3 85       		.byte	0x85
 1795 0df4 F90B0000 		.4byte	0xbf9
 1796 0df8 06       		.uleb128 0x6
 1797 0df9 77000000 		.4byte	0x77
 1798 0dfd 080E0000 		.4byte	0xe08
 1799 0e01 07       		.uleb128 0x7
 1800 0e02 DE000000 		.4byte	0xde
 1801 0e06 25       		.byte	0x25
 1802 0e07 00       		.byte	0
 1803 0e08 26       		.uleb128 0x26
 1804 0e09 DD050000 		.4byte	.LASF205
 1805 0e0d 01       		.byte	0x1
 1806 0e0e 12       		.byte	0x12
 1807 0e0f F80D0000 		.4byte	0xdf8
 1808 0e13 27       		.uleb128 0x27
 1809 0e14 80030000 		.4byte	.LASF208
 1810 0e18 09       		.byte	0x9
 1811 0e19 6901     		.2byte	0x169
 1812 0e1b 250E0000 		.4byte	0xe25
 1813 0e1f 19       		.uleb128 0x19
 1814 0e20 0A070000 		.4byte	0x70a
 1815 0e24 00       		.byte	0
 1816 0e25 28       		.uleb128 0x28
 1817 0e26 D3080000 		.4byte	.LASF215
 1818 0e2a 0D       		.byte	0xd
 1819 0e2b 5301     		.2byte	0x153
 1820 0e2d F4060000 		.4byte	0x6f4
 1821 0e31 400E0000 		.4byte	0xe40
 1822 0e35 19       		.uleb128 0x19
 1823 0e36 400E0000 		.4byte	0xe40
 1824 0e3a 19       		.uleb128 0x19
ARM GAS  /tmp/ccjNzyJ2.s 			page 33


 1825 0e3b 0A070000 		.4byte	0x70a
 1826 0e3f 00       		.byte	0
 1827 0e40 13       		.uleb128 0x13
 1828 0e41 04       		.byte	0x4
 1829 0e42 AE0A0000 		.4byte	0xaae
 1830 0e46 29       		.uleb128 0x29
 1831 0e47 EE020000 		.4byte	.LASF206
 1832 0e4b 12       		.byte	0x12
 1833 0e4c A4       		.byte	0xa4
 1834 0e4d 29       		.uleb128 0x29
 1835 0e4e 36010000 		.4byte	.LASF207
 1836 0e52 13       		.byte	0x13
 1837 0e53 F6       		.byte	0xf6
 1838 0e54 27       		.uleb128 0x27
 1839 0e55 70070000 		.4byte	.LASF209
 1840 0e59 10       		.byte	0x10
 1841 0e5a 3901     		.2byte	0x139
 1842 0e5c 6B0E0000 		.4byte	0xe6b
 1843 0e60 19       		.uleb128 0x19
 1844 0e61 6B0E0000 		.4byte	0xe6b
 1845 0e65 19       		.uleb128 0x19
 1846 0e66 710E0000 		.4byte	0xe71
 1847 0e6a 00       		.byte	0
 1848 0e6b 13       		.uleb128 0x13
 1849 0e6c 04       		.byte	0x4
 1850 0e6d F90B0000 		.4byte	0xbf9
 1851 0e71 13       		.uleb128 0x13
 1852 0e72 04       		.byte	0x4
 1853 0e73 770E0000 		.4byte	0xe77
 1854 0e77 17       		.uleb128 0x17
 1855 0e78 A00C0000 		.4byte	0xca0
 1856 0e7c 00       		.byte	0
 1857              		.section	.debug_abbrev,"",%progbits
 1858              	.Ldebug_abbrev0:
 1859 0000 01       		.uleb128 0x1
 1860 0001 11       		.uleb128 0x11
 1861 0002 01       		.byte	0x1
 1862 0003 25       		.uleb128 0x25
 1863 0004 0E       		.uleb128 0xe
 1864 0005 13       		.uleb128 0x13
 1865 0006 0B       		.uleb128 0xb
 1866 0007 03       		.uleb128 0x3
 1867 0008 0E       		.uleb128 0xe
 1868 0009 1B       		.uleb128 0x1b
 1869 000a 0E       		.uleb128 0xe
 1870 000b 55       		.uleb128 0x55
 1871 000c 17       		.uleb128 0x17
 1872 000d 11       		.uleb128 0x11
 1873 000e 01       		.uleb128 0x1
 1874 000f 10       		.uleb128 0x10
 1875 0010 17       		.uleb128 0x17
 1876 0011 00       		.byte	0
 1877 0012 00       		.byte	0
 1878 0013 02       		.uleb128 0x2
 1879 0014 24       		.uleb128 0x24
 1880 0015 00       		.byte	0
 1881 0016 0B       		.uleb128 0xb
ARM GAS  /tmp/ccjNzyJ2.s 			page 34


 1882 0017 0B       		.uleb128 0xb
 1883 0018 3E       		.uleb128 0x3e
 1884 0019 0B       		.uleb128 0xb
 1885 001a 03       		.uleb128 0x3
 1886 001b 0E       		.uleb128 0xe
 1887 001c 00       		.byte	0
 1888 001d 00       		.byte	0
 1889 001e 03       		.uleb128 0x3
 1890 001f 16       		.uleb128 0x16
 1891 0020 00       		.byte	0
 1892 0021 03       		.uleb128 0x3
 1893 0022 0E       		.uleb128 0xe
 1894 0023 3A       		.uleb128 0x3a
 1895 0024 0B       		.uleb128 0xb
 1896 0025 3B       		.uleb128 0x3b
 1897 0026 0B       		.uleb128 0xb
 1898 0027 49       		.uleb128 0x49
 1899 0028 13       		.uleb128 0x13
 1900 0029 00       		.byte	0
 1901 002a 00       		.byte	0
 1902 002b 04       		.uleb128 0x4
 1903 002c 24       		.uleb128 0x24
 1904 002d 00       		.byte	0
 1905 002e 0B       		.uleb128 0xb
 1906 002f 0B       		.uleb128 0xb
 1907 0030 3E       		.uleb128 0x3e
 1908 0031 0B       		.uleb128 0xb
 1909 0032 03       		.uleb128 0x3
 1910 0033 08       		.uleb128 0x8
 1911 0034 00       		.byte	0
 1912 0035 00       		.byte	0
 1913 0036 05       		.uleb128 0x5
 1914 0037 35       		.uleb128 0x35
 1915 0038 00       		.byte	0
 1916 0039 49       		.uleb128 0x49
 1917 003a 13       		.uleb128 0x13
 1918 003b 00       		.byte	0
 1919 003c 00       		.byte	0
 1920 003d 06       		.uleb128 0x6
 1921 003e 01       		.uleb128 0x1
 1922 003f 01       		.byte	0x1
 1923 0040 49       		.uleb128 0x49
 1924 0041 13       		.uleb128 0x13
 1925 0042 01       		.uleb128 0x1
 1926 0043 13       		.uleb128 0x13
 1927 0044 00       		.byte	0
 1928 0045 00       		.byte	0
 1929 0046 07       		.uleb128 0x7
 1930 0047 21       		.uleb128 0x21
 1931 0048 00       		.byte	0
 1932 0049 49       		.uleb128 0x49
 1933 004a 13       		.uleb128 0x13
 1934 004b 2F       		.uleb128 0x2f
 1935 004c 0B       		.uleb128 0xb
 1936 004d 00       		.byte	0
 1937 004e 00       		.byte	0
 1938 004f 08       		.uleb128 0x8
ARM GAS  /tmp/ccjNzyJ2.s 			page 35


 1939 0050 13       		.uleb128 0x13
 1940 0051 01       		.byte	0x1
 1941 0052 0B       		.uleb128 0xb
 1942 0053 05       		.uleb128 0x5
 1943 0054 3A       		.uleb128 0x3a
 1944 0055 0B       		.uleb128 0xb
 1945 0056 3B       		.uleb128 0x3b
 1946 0057 05       		.uleb128 0x5
 1947 0058 6E       		.uleb128 0x6e
 1948 0059 0E       		.uleb128 0xe
 1949 005a 01       		.uleb128 0x1
 1950 005b 13       		.uleb128 0x13
 1951 005c 00       		.byte	0
 1952 005d 00       		.byte	0
 1953 005e 09       		.uleb128 0x9
 1954 005f 0D       		.uleb128 0xd
 1955 0060 00       		.byte	0
 1956 0061 03       		.uleb128 0x3
 1957 0062 0E       		.uleb128 0xe
 1958 0063 3A       		.uleb128 0x3a
 1959 0064 0B       		.uleb128 0xb
 1960 0065 3B       		.uleb128 0x3b
 1961 0066 05       		.uleb128 0x5
 1962 0067 49       		.uleb128 0x49
 1963 0068 13       		.uleb128 0x13
 1964 0069 38       		.uleb128 0x38
 1965 006a 0B       		.uleb128 0xb
 1966 006b 00       		.byte	0
 1967 006c 00       		.byte	0
 1968 006d 0A       		.uleb128 0xa
 1969 006e 0D       		.uleb128 0xd
 1970 006f 00       		.byte	0
 1971 0070 03       		.uleb128 0x3
 1972 0071 0E       		.uleb128 0xe
 1973 0072 3A       		.uleb128 0x3a
 1974 0073 0B       		.uleb128 0xb
 1975 0074 3B       		.uleb128 0x3b
 1976 0075 05       		.uleb128 0x5
 1977 0076 49       		.uleb128 0x49
 1978 0077 13       		.uleb128 0x13
 1979 0078 38       		.uleb128 0x38
 1980 0079 05       		.uleb128 0x5
 1981 007a 00       		.byte	0
 1982 007b 00       		.byte	0
 1983 007c 0B       		.uleb128 0xb
 1984 007d 16       		.uleb128 0x16
 1985 007e 00       		.byte	0
 1986 007f 03       		.uleb128 0x3
 1987 0080 08       		.uleb128 0x8
 1988 0081 3A       		.uleb128 0x3a
 1989 0082 0B       		.uleb128 0xb
 1990 0083 3B       		.uleb128 0x3b
 1991 0084 05       		.uleb128 0x5
 1992 0085 49       		.uleb128 0x49
 1993 0086 13       		.uleb128 0x13
 1994 0087 00       		.byte	0
 1995 0088 00       		.byte	0
ARM GAS  /tmp/ccjNzyJ2.s 			page 36


 1996 0089 0C       		.uleb128 0xc
 1997 008a 16       		.uleb128 0x16
 1998 008b 00       		.byte	0
 1999 008c 03       		.uleb128 0x3
 2000 008d 0E       		.uleb128 0xe
 2001 008e 3A       		.uleb128 0x3a
 2002 008f 0B       		.uleb128 0xb
 2003 0090 3B       		.uleb128 0x3b
 2004 0091 05       		.uleb128 0x5
 2005 0092 49       		.uleb128 0x49
 2006 0093 13       		.uleb128 0x13
 2007 0094 00       		.byte	0
 2008 0095 00       		.byte	0
 2009 0096 0D       		.uleb128 0xd
 2010 0097 13       		.uleb128 0x13
 2011 0098 01       		.byte	0x1
 2012 0099 03       		.uleb128 0x3
 2013 009a 0E       		.uleb128 0xe
 2014 009b 0B       		.uleb128 0xb
 2015 009c 0B       		.uleb128 0xb
 2016 009d 3A       		.uleb128 0x3a
 2017 009e 0B       		.uleb128 0xb
 2018 009f 3B       		.uleb128 0x3b
 2019 00a0 0B       		.uleb128 0xb
 2020 00a1 01       		.uleb128 0x1
 2021 00a2 13       		.uleb128 0x13
 2022 00a3 00       		.byte	0
 2023 00a4 00       		.byte	0
 2024 00a5 0E       		.uleb128 0xe
 2025 00a6 17       		.uleb128 0x17
 2026 00a7 01       		.byte	0x1
 2027 00a8 0B       		.uleb128 0xb
 2028 00a9 0B       		.uleb128 0xb
 2029 00aa 3A       		.uleb128 0x3a
 2030 00ab 0B       		.uleb128 0xb
 2031 00ac 3B       		.uleb128 0x3b
 2032 00ad 0B       		.uleb128 0xb
 2033 00ae 01       		.uleb128 0x1
 2034 00af 13       		.uleb128 0x13
 2035 00b0 00       		.byte	0
 2036 00b1 00       		.byte	0
 2037 00b2 0F       		.uleb128 0xf
 2038 00b3 0D       		.uleb128 0xd
 2039 00b4 00       		.byte	0
 2040 00b5 03       		.uleb128 0x3
 2041 00b6 0E       		.uleb128 0xe
 2042 00b7 3A       		.uleb128 0x3a
 2043 00b8 0B       		.uleb128 0xb
 2044 00b9 3B       		.uleb128 0x3b
 2045 00ba 0B       		.uleb128 0xb
 2046 00bb 49       		.uleb128 0x49
 2047 00bc 13       		.uleb128 0x13
 2048 00bd 00       		.byte	0
 2049 00be 00       		.byte	0
 2050 00bf 10       		.uleb128 0x10
 2051 00c0 0D       		.uleb128 0xd
 2052 00c1 00       		.byte	0
ARM GAS  /tmp/ccjNzyJ2.s 			page 37


 2053 00c2 03       		.uleb128 0x3
 2054 00c3 0E       		.uleb128 0xe
 2055 00c4 3A       		.uleb128 0x3a
 2056 00c5 0B       		.uleb128 0xb
 2057 00c6 3B       		.uleb128 0x3b
 2058 00c7 0B       		.uleb128 0xb
 2059 00c8 49       		.uleb128 0x49
 2060 00c9 13       		.uleb128 0x13
 2061 00ca 38       		.uleb128 0x38
 2062 00cb 0B       		.uleb128 0xb
 2063 00cc 00       		.byte	0
 2064 00cd 00       		.byte	0
 2065 00ce 11       		.uleb128 0x11
 2066 00cf 0D       		.uleb128 0xd
 2067 00d0 00       		.byte	0
 2068 00d1 03       		.uleb128 0x3
 2069 00d2 08       		.uleb128 0x8
 2070 00d3 3A       		.uleb128 0x3a
 2071 00d4 0B       		.uleb128 0xb
 2072 00d5 3B       		.uleb128 0x3b
 2073 00d6 0B       		.uleb128 0xb
 2074 00d7 49       		.uleb128 0x49
 2075 00d8 13       		.uleb128 0x13
 2076 00d9 38       		.uleb128 0x38
 2077 00da 0B       		.uleb128 0xb
 2078 00db 00       		.byte	0
 2079 00dc 00       		.byte	0
 2080 00dd 12       		.uleb128 0x12
 2081 00de 13       		.uleb128 0x13
 2082 00df 01       		.byte	0x1
 2083 00e0 0B       		.uleb128 0xb
 2084 00e1 0B       		.uleb128 0xb
 2085 00e2 3A       		.uleb128 0x3a
 2086 00e3 0B       		.uleb128 0xb
 2087 00e4 3B       		.uleb128 0x3b
 2088 00e5 0B       		.uleb128 0xb
 2089 00e6 6E       		.uleb128 0x6e
 2090 00e7 0E       		.uleb128 0xe
 2091 00e8 01       		.uleb128 0x1
 2092 00e9 13       		.uleb128 0x13
 2093 00ea 00       		.byte	0
 2094 00eb 00       		.byte	0
 2095 00ec 13       		.uleb128 0x13
 2096 00ed 0F       		.uleb128 0xf
 2097 00ee 00       		.byte	0
 2098 00ef 0B       		.uleb128 0xb
 2099 00f0 0B       		.uleb128 0xb
 2100 00f1 49       		.uleb128 0x49
 2101 00f2 13       		.uleb128 0x13
 2102 00f3 00       		.byte	0
 2103 00f4 00       		.byte	0
 2104 00f5 14       		.uleb128 0x14
 2105 00f6 0F       		.uleb128 0xf
 2106 00f7 00       		.byte	0
 2107 00f8 0B       		.uleb128 0xb
 2108 00f9 0B       		.uleb128 0xb
 2109 00fa 00       		.byte	0
ARM GAS  /tmp/ccjNzyJ2.s 			page 38


 2110 00fb 00       		.byte	0
 2111 00fc 15       		.uleb128 0x15
 2112 00fd 0D       		.uleb128 0xd
 2113 00fe 00       		.byte	0
 2114 00ff 03       		.uleb128 0x3
 2115 0100 08       		.uleb128 0x8
 2116 0101 3A       		.uleb128 0x3a
 2117 0102 0B       		.uleb128 0xb
 2118 0103 3B       		.uleb128 0x3b
 2119 0104 05       		.uleb128 0x5
 2120 0105 49       		.uleb128 0x49
 2121 0106 13       		.uleb128 0x13
 2122 0107 38       		.uleb128 0x38
 2123 0108 0B       		.uleb128 0xb
 2124 0109 00       		.byte	0
 2125 010a 00       		.byte	0
 2126 010b 16       		.uleb128 0x16
 2127 010c 13       		.uleb128 0x13
 2128 010d 01       		.byte	0x1
 2129 010e 03       		.uleb128 0x3
 2130 010f 0E       		.uleb128 0xe
 2131 0110 0B       		.uleb128 0xb
 2132 0111 0B       		.uleb128 0xb
 2133 0112 3A       		.uleb128 0x3a
 2134 0113 0B       		.uleb128 0xb
 2135 0114 3B       		.uleb128 0x3b
 2136 0115 05       		.uleb128 0x5
 2137 0116 01       		.uleb128 0x1
 2138 0117 13       		.uleb128 0x13
 2139 0118 00       		.byte	0
 2140 0119 00       		.byte	0
 2141 011a 17       		.uleb128 0x17
 2142 011b 26       		.uleb128 0x26
 2143 011c 00       		.byte	0
 2144 011d 49       		.uleb128 0x49
 2145 011e 13       		.uleb128 0x13
 2146 011f 00       		.byte	0
 2147 0120 00       		.byte	0
 2148 0121 18       		.uleb128 0x18
 2149 0122 15       		.uleb128 0x15
 2150 0123 01       		.byte	0x1
 2151 0124 01       		.uleb128 0x1
 2152 0125 13       		.uleb128 0x13
 2153 0126 00       		.byte	0
 2154 0127 00       		.byte	0
 2155 0128 19       		.uleb128 0x19
 2156 0129 05       		.uleb128 0x5
 2157 012a 00       		.byte	0
 2158 012b 49       		.uleb128 0x49
 2159 012c 13       		.uleb128 0x13
 2160 012d 00       		.byte	0
 2161 012e 00       		.byte	0
 2162 012f 1A       		.uleb128 0x1a
 2163 0130 15       		.uleb128 0x15
 2164 0131 01       		.byte	0x1
 2165 0132 49       		.uleb128 0x49
 2166 0133 13       		.uleb128 0x13
ARM GAS  /tmp/ccjNzyJ2.s 			page 39


 2167 0134 01       		.uleb128 0x1
 2168 0135 13       		.uleb128 0x13
 2169 0136 00       		.byte	0
 2170 0137 00       		.byte	0
 2171 0138 1B       		.uleb128 0x1b
 2172 0139 04       		.uleb128 0x4
 2173 013a 01       		.byte	0x1
 2174 013b 0B       		.uleb128 0xb
 2175 013c 0B       		.uleb128 0xb
 2176 013d 3A       		.uleb128 0x3a
 2177 013e 0B       		.uleb128 0xb
 2178 013f 3B       		.uleb128 0x3b
 2179 0140 0B       		.uleb128 0xb
 2180 0141 6E       		.uleb128 0x6e
 2181 0142 0E       		.uleb128 0xe
 2182 0143 01       		.uleb128 0x1
 2183 0144 13       		.uleb128 0x13
 2184 0145 00       		.byte	0
 2185 0146 00       		.byte	0
 2186 0147 1C       		.uleb128 0x1c
 2187 0148 28       		.uleb128 0x28
 2188 0149 00       		.byte	0
 2189 014a 03       		.uleb128 0x3
 2190 014b 0E       		.uleb128 0xe
 2191 014c 1C       		.uleb128 0x1c
 2192 014d 0D       		.uleb128 0xd
 2193 014e 00       		.byte	0
 2194 014f 00       		.byte	0
 2195 0150 1D       		.uleb128 0x1d
 2196 0151 2E       		.uleb128 0x2e
 2197 0152 01       		.byte	0x1
 2198 0153 3F       		.uleb128 0x3f
 2199 0154 19       		.uleb128 0x19
 2200 0155 03       		.uleb128 0x3
 2201 0156 0E       		.uleb128 0xe
 2202 0157 3A       		.uleb128 0x3a
 2203 0158 0B       		.uleb128 0xb
 2204 0159 3B       		.uleb128 0x3b
 2205 015a 0B       		.uleb128 0xb
 2206 015b 49       		.uleb128 0x49
 2207 015c 13       		.uleb128 0x13
 2208 015d 11       		.uleb128 0x11
 2209 015e 01       		.uleb128 0x1
 2210 015f 12       		.uleb128 0x12
 2211 0160 06       		.uleb128 0x6
 2212 0161 40       		.uleb128 0x40
 2213 0162 18       		.uleb128 0x18
 2214 0163 9742     		.uleb128 0x2117
 2215 0165 19       		.uleb128 0x19
 2216 0166 01       		.uleb128 0x1
 2217 0167 13       		.uleb128 0x13
 2218 0168 00       		.byte	0
 2219 0169 00       		.byte	0
 2220 016a 1E       		.uleb128 0x1e
 2221 016b 0B       		.uleb128 0xb
 2222 016c 01       		.byte	0x1
 2223 016d 11       		.uleb128 0x11
ARM GAS  /tmp/ccjNzyJ2.s 			page 40


 2224 016e 01       		.uleb128 0x1
 2225 016f 12       		.uleb128 0x12
 2226 0170 06       		.uleb128 0x6
 2227 0171 01       		.uleb128 0x1
 2228 0172 13       		.uleb128 0x13
 2229 0173 00       		.byte	0
 2230 0174 00       		.byte	0
 2231 0175 1F       		.uleb128 0x1f
 2232 0176 34       		.uleb128 0x34
 2233 0177 00       		.byte	0
 2234 0178 03       		.uleb128 0x3
 2235 0179 08       		.uleb128 0x8
 2236 017a 3A       		.uleb128 0x3a
 2237 017b 0B       		.uleb128 0xb
 2238 017c 3B       		.uleb128 0x3b
 2239 017d 0B       		.uleb128 0xb
 2240 017e 49       		.uleb128 0x49
 2241 017f 13       		.uleb128 0x13
 2242 0180 00       		.byte	0
 2243 0181 00       		.byte	0
 2244 0182 20       		.uleb128 0x20
 2245 0183 898201   		.uleb128 0x4109
 2246 0186 01       		.byte	0x1
 2247 0187 11       		.uleb128 0x11
 2248 0188 01       		.uleb128 0x1
 2249 0189 31       		.uleb128 0x31
 2250 018a 13       		.uleb128 0x13
 2251 018b 01       		.uleb128 0x1
 2252 018c 13       		.uleb128 0x13
 2253 018d 00       		.byte	0
 2254 018e 00       		.byte	0
 2255 018f 21       		.uleb128 0x21
 2256 0190 8A8201   		.uleb128 0x410a
 2257 0193 00       		.byte	0
 2258 0194 02       		.uleb128 0x2
 2259 0195 18       		.uleb128 0x18
 2260 0196 9142     		.uleb128 0x2111
 2261 0198 18       		.uleb128 0x18
 2262 0199 00       		.byte	0
 2263 019a 00       		.byte	0
 2264 019b 22       		.uleb128 0x22
 2265 019c 898201   		.uleb128 0x4109
 2266 019f 00       		.byte	0
 2267 01a0 11       		.uleb128 0x11
 2268 01a1 01       		.uleb128 0x1
 2269 01a2 31       		.uleb128 0x31
 2270 01a3 13       		.uleb128 0x13
 2271 01a4 00       		.byte	0
 2272 01a5 00       		.byte	0
 2273 01a6 23       		.uleb128 0x23
 2274 01a7 898201   		.uleb128 0x4109
 2275 01aa 01       		.byte	0x1
 2276 01ab 11       		.uleb128 0x11
 2277 01ac 01       		.uleb128 0x1
 2278 01ad 31       		.uleb128 0x31
 2279 01ae 13       		.uleb128 0x13
 2280 01af 00       		.byte	0
ARM GAS  /tmp/ccjNzyJ2.s 			page 41


 2281 01b0 00       		.byte	0
 2282 01b1 24       		.uleb128 0x24
 2283 01b2 34       		.uleb128 0x34
 2284 01b3 00       		.byte	0
 2285 01b4 03       		.uleb128 0x3
 2286 01b5 0E       		.uleb128 0xe
 2287 01b6 3A       		.uleb128 0x3a
 2288 01b7 0B       		.uleb128 0xb
 2289 01b8 3B       		.uleb128 0x3b
 2290 01b9 05       		.uleb128 0x5
 2291 01ba 49       		.uleb128 0x49
 2292 01bb 13       		.uleb128 0x13
 2293 01bc 3F       		.uleb128 0x3f
 2294 01bd 19       		.uleb128 0x19
 2295 01be 3C       		.uleb128 0x3c
 2296 01bf 19       		.uleb128 0x19
 2297 01c0 00       		.byte	0
 2298 01c1 00       		.byte	0
 2299 01c2 25       		.uleb128 0x25
 2300 01c3 34       		.uleb128 0x34
 2301 01c4 00       		.byte	0
 2302 01c5 03       		.uleb128 0x3
 2303 01c6 08       		.uleb128 0x8
 2304 01c7 3A       		.uleb128 0x3a
 2305 01c8 0B       		.uleb128 0xb
 2306 01c9 3B       		.uleb128 0x3b
 2307 01ca 0B       		.uleb128 0xb
 2308 01cb 49       		.uleb128 0x49
 2309 01cc 13       		.uleb128 0x13
 2310 01cd 3F       		.uleb128 0x3f
 2311 01ce 19       		.uleb128 0x19
 2312 01cf 3C       		.uleb128 0x3c
 2313 01d0 19       		.uleb128 0x19
 2314 01d1 00       		.byte	0
 2315 01d2 00       		.byte	0
 2316 01d3 26       		.uleb128 0x26
 2317 01d4 34       		.uleb128 0x34
 2318 01d5 00       		.byte	0
 2319 01d6 03       		.uleb128 0x3
 2320 01d7 0E       		.uleb128 0xe
 2321 01d8 3A       		.uleb128 0x3a
 2322 01d9 0B       		.uleb128 0xb
 2323 01da 3B       		.uleb128 0x3b
 2324 01db 0B       		.uleb128 0xb
 2325 01dc 49       		.uleb128 0x49
 2326 01dd 13       		.uleb128 0x13
 2327 01de 00       		.byte	0
 2328 01df 00       		.byte	0
 2329 01e0 27       		.uleb128 0x27
 2330 01e1 2E       		.uleb128 0x2e
 2331 01e2 01       		.byte	0x1
 2332 01e3 3F       		.uleb128 0x3f
 2333 01e4 19       		.uleb128 0x19
 2334 01e5 03       		.uleb128 0x3
 2335 01e6 0E       		.uleb128 0xe
 2336 01e7 3A       		.uleb128 0x3a
 2337 01e8 0B       		.uleb128 0xb
ARM GAS  /tmp/ccjNzyJ2.s 			page 42


 2338 01e9 3B       		.uleb128 0x3b
 2339 01ea 05       		.uleb128 0x5
 2340 01eb 3C       		.uleb128 0x3c
 2341 01ec 19       		.uleb128 0x19
 2342 01ed 01       		.uleb128 0x1
 2343 01ee 13       		.uleb128 0x13
 2344 01ef 00       		.byte	0
 2345 01f0 00       		.byte	0
 2346 01f1 28       		.uleb128 0x28
 2347 01f2 2E       		.uleb128 0x2e
 2348 01f3 01       		.byte	0x1
 2349 01f4 3F       		.uleb128 0x3f
 2350 01f5 19       		.uleb128 0x19
 2351 01f6 03       		.uleb128 0x3
 2352 01f7 0E       		.uleb128 0xe
 2353 01f8 3A       		.uleb128 0x3a
 2354 01f9 0B       		.uleb128 0xb
 2355 01fa 3B       		.uleb128 0x3b
 2356 01fb 05       		.uleb128 0x5
 2357 01fc 49       		.uleb128 0x49
 2358 01fd 13       		.uleb128 0x13
 2359 01fe 3C       		.uleb128 0x3c
 2360 01ff 19       		.uleb128 0x19
 2361 0200 01       		.uleb128 0x1
 2362 0201 13       		.uleb128 0x13
 2363 0202 00       		.byte	0
 2364 0203 00       		.byte	0
 2365 0204 29       		.uleb128 0x29
 2366 0205 2E       		.uleb128 0x2e
 2367 0206 00       		.byte	0
 2368 0207 3F       		.uleb128 0x3f
 2369 0208 19       		.uleb128 0x19
 2370 0209 03       		.uleb128 0x3
 2371 020a 0E       		.uleb128 0xe
 2372 020b 3A       		.uleb128 0x3a
 2373 020c 0B       		.uleb128 0xb
 2374 020d 3B       		.uleb128 0x3b
 2375 020e 0B       		.uleb128 0xb
 2376 020f 3C       		.uleb128 0x3c
 2377 0210 19       		.uleb128 0x19
 2378 0211 00       		.byte	0
 2379 0212 00       		.byte	0
 2380 0213 00       		.byte	0
 2381              		.section	.debug_aranges,"",%progbits
 2382 0000 1C000000 		.4byte	0x1c
 2383 0004 0200     		.2byte	0x2
 2384 0006 00000000 		.4byte	.Ldebug_info0
 2385 000a 04       		.byte	0x4
 2386 000b 00       		.byte	0
 2387 000c 0000     		.2byte	0
 2388 000e 0000     		.2byte	0
 2389 0010 00000000 		.4byte	.LFB37
 2390 0014 60000000 		.4byte	.LFE37-.LFB37
 2391 0018 00000000 		.4byte	0
 2392 001c 00000000 		.4byte	0
 2393              		.section	.debug_ranges,"",%progbits
 2394              	.Ldebug_ranges0:
ARM GAS  /tmp/ccjNzyJ2.s 			page 43


 2395 0000 00000000 		.4byte	.LFB37
 2396 0004 60000000 		.4byte	.LFE37
 2397 0008 00000000 		.4byte	0
 2398 000c 00000000 		.4byte	0
 2399              		.section	.debug_line,"",%progbits
 2400              	.Ldebug_line0:
 2401 0000 39030000 		.section	.debug_str,"MS",%progbits,1
 2401      02001303 
 2401      00000201 
 2401      FB0E0D00 
 2401      01010101 
 2402              	.LASF85:
 2403 0000 50494F5F 		.ascii	"PIO_PCRHR\000"
 2403      50435248 
 2403      5200
 2404              	.LASF68:
 2405 000a 50494F5F 		.ascii	"PIO_ELSR\000"
 2405      454C5352 
 2405      00
 2406              	.LASF102:
 2407 0013 55415254 		.ascii	"UART_IMR\000"
 2407      5F494D52 
 2407      00
 2408              	.LASF62:
 2409 001c 50494F5F 		.ascii	"PIO_AIMER\000"
 2409      41494D45 
 2409      5200
 2410              	.LASF118:
 2411 0026 73697A65 		.ascii	"size_t\000"
 2411      5F7400
 2412              	.LASF213:
 2413 002d 39736473 		.ascii	"9sdstate_t\000"
 2413      74617465 
 2413      5F7400
 2414              	.LASF128:
 2415 0038 7264796D 		.ascii	"rdymsg\000"
 2415      736700
 2416              	.LASF197:
 2417 003f 77726974 		.ascii	"write\000"
 2417      6500
 2418              	.LASF178:
 2419 0045 4F757470 		.ascii	"OutputQueue\000"
 2419      75745175 
 2419      65756500 
 2420              	.LASF4:
 2421 0051 5F5F7569 		.ascii	"__uint8_t\000"
 2421      6E74385F 
 2421      7400
 2422              	.LASF78:
 2423 005b 50494F5F 		.ascii	"PIO_SCHMITT\000"
 2423      5343484D 
 2423      49545400 
 2424              	.LASF180:
 2425 0067 696F706F 		.ascii	"ioportmask_t\000"
 2425      72746D61 
 2425      736B5F74 
 2425      00
ARM GAS  /tmp/ccjNzyJ2.s 			page 44


 2426              	.LASF58:
 2427 0074 50494F5F 		.ascii	"PIO_OWER\000"
 2427      4F574552 
 2427      00
 2428              	.LASF108:
 2429 007d 55415254 		.ascii	"UART_RCR\000"
 2429      5F524352 
 2429      00
 2430              	.LASF84:
 2431 0086 50494F5F 		.ascii	"PIO_PCISR\000"
 2431      50434953 
 2431      5200
 2432              	.LASF10:
 2433 0090 6C6F6E67 		.ascii	"long long unsigned int\000"
 2433      206C6F6E 
 2433      6720756E 
 2433      7369676E 
 2433      65642069 
 2434              	.LASF129:
 2435 00a7 65786974 		.ascii	"exitcode\000"
 2435      636F6465 
 2435      00
 2436              	.LASF82:
 2437 00b0 50494F5F 		.ascii	"PIO_PCIDR\000"
 2437      50434944 
 2437      5200
 2438              	.LASF91:
 2439 00ba 50494F5F 		.ascii	"PIO_RNCR\000"
 2439      524E4352 
 2439      00
 2440              	.LASF204:
 2441 00c3 49544D5F 		.ascii	"ITM_RxBuffer\000"
 2441      52784275 
 2441      66666572 
 2441      00
 2442              	.LASF53:
 2443 00d0 50494F5F 		.ascii	"PIO_SCDR\000"
 2443      53434452 
 2443      00
 2444              	.LASF42:
 2445 00d9 50494F5F 		.ascii	"PIO_MDSR\000"
 2445      4D445352 
 2445      00
 2446              	.LASF119:
 2447 00e2 626F6F6C 		.ascii	"bool_t\000"
 2447      5F7400
 2448              	.LASF134:
 2449 00e9 705F7072 		.ascii	"p_prio\000"
 2449      696F00
 2450              	.LASF202:
 2451 00f0 72656164 		.ascii	"readt\000"
 2451      7400
 2452              	.LASF169:
 2453 00f6 715F7761 		.ascii	"q_waiting\000"
 2453      6974696E 
 2453      6700
 2454              	.LASF9:
ARM GAS  /tmp/ccjNzyJ2.s 			page 45


 2455 0100 6C6F6E67 		.ascii	"long long int\000"
 2455      206C6F6E 
 2455      6720696E 
 2455      7400
 2456              	.LASF0:
 2457 010e 7369676E 		.ascii	"signed char\000"
 2457      65642063 
 2457      68617200 
 2458              	.LASF83:
 2459 011a 50494F5F 		.ascii	"PIO_PCIMR\000"
 2459      5043494D 
 2459      5200
 2460              	.LASF115:
 2461 0124 55415254 		.ascii	"UART_PTCR\000"
 2461      5F505443 
 2461      5200
 2462              	.LASF66:
 2463 012e 50494F5F 		.ascii	"PIO_ESR\000"
 2463      45535200 
 2464              	.LASF207:
 2465 0136 63685379 		.ascii	"chSysInit\000"
 2465      73496E69 
 2465      7400
 2466              	.LASF149:
 2467 0140 705F6D70 		.ascii	"p_mpool\000"
 2467      6F6F6C00 
 2468              	.LASF22:
 2469 0148 50494F5F 		.ascii	"PIO_PSR\000"
 2469      50535200 
 2470              	.LASF158:
 2471 0150 6D5F7175 		.ascii	"m_queue\000"
 2471      65756500 
 2472              	.LASF27:
 2473 0158 52657365 		.ascii	"Reserved2\000"
 2473      72766564 
 2473      3200
 2474              	.LASF31:
 2475 0162 52657365 		.ascii	"Reserved3\000"
 2475      72766564 
 2475      3300
 2476              	.LASF43:
 2477 016c 52657365 		.ascii	"Reserved4\000"
 2477      72766564 
 2477      3400
 2478              	.LASF46:
 2479 0176 50494F5F 		.ascii	"PIO_PUSR\000"
 2479      50555352 
 2479      00
 2480              	.LASF49:
 2481 017f 52657365 		.ascii	"Reserved6\000"
 2481      72766564 
 2481      3600
 2482              	.LASF57:
 2483 0189 52657365 		.ascii	"Reserved7\000"
 2483      72766564 
 2483      3700
 2484              	.LASF61:
ARM GAS  /tmp/ccjNzyJ2.s 			page 46


 2485 0193 52657365 		.ascii	"Reserved8\000"
 2485      72766564 
 2485      3800
 2486              	.LASF65:
 2487 019d 52657365 		.ascii	"Reserved9\000"
 2487      72766564 
 2487      3900
 2488              	.LASF152:
 2489 01a7 31315468 		.ascii	"11ThreadsList\000"
 2489      72656164 
 2489      734C6973 
 2489      7400
 2490              	.LASF21:
 2491 01b5 50494F5F 		.ascii	"PIO_PDR\000"
 2491      50445200 
 2492              	.LASF188:
 2493 01bd 73746174 		.ascii	"state\000"
 2493      6500
 2494              	.LASF6:
 2495 01c3 6C6F6E67 		.ascii	"long int\000"
 2495      20696E74 
 2495      00
 2496              	.LASF44:
 2497 01cc 50494F5F 		.ascii	"PIO_PUDR\000"
 2497      50554452 
 2497      00
 2498              	.LASF121:
 2499 01d5 74737461 		.ascii	"tstate_t\000"
 2499      74655F74 
 2499      00
 2500              	.LASF141:
 2501 01de 705F7265 		.ascii	"p_refs\000"
 2501      667300
 2502              	.LASF171:
 2503 01e5 715F6275 		.ascii	"q_buffer\000"
 2503      66666572 
 2503      00
 2504              	.LASF173:
 2505 01ee 715F7772 		.ascii	"q_wrptr\000"
 2505      70747200 
 2506              	.LASF81:
 2507 01f6 50494F5F 		.ascii	"PIO_PCIER\000"
 2507      50434945 
 2507      5200
 2508              	.LASF35:
 2509 0200 50494F5F 		.ascii	"PIO_PDSR\000"
 2509      50445352 
 2509      00
 2510              	.LASF94:
 2511 0209 50494F5F 		.ascii	"PIO_PTCR\000"
 2511      50544352 
 2511      00
 2512              	.LASF136:
 2513 0212 705F6E65 		.ascii	"p_newer\000"
 2513      77657200 
 2514              	.LASF199:
 2515 021a 70757477 		.ascii	"putwouldblock\000"
ARM GAS  /tmp/ccjNzyJ2.s 			page 47


 2515      6F756C64 
 2515      626C6F63 
 2515      6B00
 2516              	.LASF116:
 2517 0228 55415254 		.ascii	"UART_PTSR\000"
 2517      5F505453 
 2517      5200
 2518              	.LASF48:
 2519 0232 50494F5F 		.ascii	"PIO_ABCDSR\000"
 2519      41424344 
 2519      535200
 2520              	.LASF7:
 2521 023d 5F5F7569 		.ascii	"__uint32_t\000"
 2521      6E743332 
 2521      5F7400
 2522              	.LASF154:
 2523 0248 72656761 		.ascii	"regarm_t\000"
 2523      726D5F74 
 2523      00
 2524              	.LASF69:
 2525 0251 52657365 		.ascii	"Reserved10\000"
 2525      72766564 
 2525      313000
 2526              	.LASF73:
 2527 025c 52657365 		.ascii	"Reserved11\000"
 2527      72766564 
 2527      313100
 2528              	.LASF77:
 2529 0267 52657365 		.ascii	"Reserved12\000"
 2529      72766564 
 2529      313200
 2530              	.LASF79:
 2531 0272 52657365 		.ascii	"Reserved13\000"
 2531      72766564 
 2531      313300
 2532              	.LASF76:
 2533 027d 50494F5F 		.ascii	"PIO_WPSR\000"
 2533      57505352 
 2533      00
 2534              	.LASF165:
 2535 0286 4576656E 		.ascii	"EventSource\000"
 2535      74536F75 
 2535      72636500 
 2536              	.LASF20:
 2537 0292 50494F5F 		.ascii	"PIO_PER\000"
 2537      50455200 
 2538              	.LASF11:
 2539 029a 756E7369 		.ascii	"unsigned int\000"
 2539      676E6564 
 2539      20696E74 
 2539      00
 2540              	.LASF45:
 2541 02a7 50494F5F 		.ascii	"PIO_PUER\000"
 2541      50554552 
 2541      00
 2542              	.LASF72:
 2543 02b0 50494F5F 		.ascii	"PIO_FRLHSR\000"
ARM GAS  /tmp/ccjNzyJ2.s 			page 48


 2543      46524C48 
 2543      535200
 2544              	.LASF196:
 2545 02bb 53657269 		.ascii	"SerialDriverVMT\000"
 2545      616C4472 
 2545      69766572 
 2545      564D5400 
 2546              	.LASF26:
 2547 02cb 50494F5F 		.ascii	"PIO_OSR\000"
 2547      4F535200 
 2548              	.LASF189:
 2549 02d3 69717565 		.ascii	"iqueue\000"
 2549      756500
 2550              	.LASF144:
 2551 02da 705F6D73 		.ascii	"p_msgqueue\000"
 2551      67717565 
 2551      756500
 2552              	.LASF95:
 2553 02e5 50494F5F 		.ascii	"PIO_PTSR\000"
 2553      50545352 
 2553      00
 2554              	.LASF206:
 2555 02ee 68616C49 		.ascii	"halInit\000"
 2555      6E697400 
 2556              	.LASF23:
 2557 02f6 52657365 		.ascii	"Reserved1\000"
 2557      72766564 
 2557      3100
 2558              	.LASF25:
 2559 0300 50494F5F 		.ascii	"PIO_ODR\000"
 2559      4F445200 
 2560              	.LASF96:
 2561 0308 3350696F 		.ascii	"3Pio\000"
 2561      00
 2562              	.LASF105:
 2563 030d 55415254 		.ascii	"UART_THR\000"
 2563      5F544852 
 2563      00
 2564              	.LASF47:
 2565 0316 52657365 		.ascii	"Reserved5\000"
 2565      72766564 
 2565      3500
 2566              	.LASF186:
 2567 0320 6576656E 		.ascii	"event\000"
 2567      7400
 2568              	.LASF156:
 2569 0326 636F6E74 		.ascii	"context\000"
 2569      65787400 
 2570              	.LASF3:
 2571 032e 73686F72 		.ascii	"short unsigned int\000"
 2571      7420756E 
 2571      7369676E 
 2571      65642069 
 2571      6E7400
 2572              	.LASF86:
 2573 0341 50494F5F 		.ascii	"PIO_RPR\000"
 2573      52505200 
ARM GAS  /tmp/ccjNzyJ2.s 			page 49


 2574              	.LASF190:
 2575 0349 6F717565 		.ascii	"oqueue\000"
 2575      756500
 2576              	.LASF162:
 2577 0350 656C5F6E 		.ascii	"el_next\000"
 2577      65787400 
 2578              	.LASF74:
 2579 0358 50494F5F 		.ascii	"PIO_LOCKSR\000"
 2579      4C4F434B 
 2579      535200
 2580              	.LASF201:
 2581 0363 77726974 		.ascii	"writet\000"
 2581      657400
 2582              	.LASF39:
 2583 036a 50494F5F 		.ascii	"PIO_ISR\000"
 2583      49535200 
 2584              	.LASF120:
 2585 0372 746D6F64 		.ascii	"tmode_t\000"
 2585      655F7400 
 2586              	.LASF16:
 2587 037a 526F5265 		.ascii	"RoReg\000"
 2587      6700
 2588              	.LASF208:
 2589 0380 63685468 		.ascii	"chThdSleep\000"
 2589      64536C65 
 2589      657000
 2590              	.LASF98:
 2591 038b 55415254 		.ascii	"UART_CR\000"
 2591      5F435200 
 2592              	.LASF153:
 2593 0393 54687265 		.ascii	"ThreadsList\000"
 2593      6164734C 
 2593      69737400 
 2594              	.LASF125:
 2595 039f 6576656E 		.ascii	"eventmask_t\000"
 2595      746D6173 
 2595      6B5F7400 
 2596              	.LASF177:
 2597 03ab 496E7075 		.ascii	"InputQueue\000"
 2597      74517565 
 2597      756500
 2598              	.LASF157:
 2599 03b6 4D757465 		.ascii	"Mutex\000"
 2599      7800
 2600              	.LASF37:
 2601 03bc 50494F5F 		.ascii	"PIO_IDR\000"
 2601      49445200 
 2602              	.LASF176:
 2603 03c4 716E6F74 		.ascii	"qnotify_t\000"
 2603      6966795F 
 2603      7400
 2604              	.LASF168:
 2605 03ce 47656E65 		.ascii	"GenericQueue\000"
 2605      72696351 
 2605      75657565 
 2605      00
 2606              	.LASF150:
ARM GAS  /tmp/ccjNzyJ2.s 			page 50


 2607 03db 54687265 		.ascii	"ThreadsQueue\000"
 2607      61647351 
 2607      75657565 
 2607      00
 2608              	.LASF64:
 2609 03e8 50494F5F 		.ascii	"PIO_AIMMR\000"
 2609      41494D4D 
 2609      5200
 2610              	.LASF18:
 2611 03f2 52775265 		.ascii	"RwReg\000"
 2611      6700
 2612              	.LASF164:
 2613 03f8 656C5F6D 		.ascii	"el_mask\000"
 2613      61736B00 
 2614              	.LASF114:
 2615 0400 55415254 		.ascii	"UART_TNCR\000"
 2615      5F544E43 
 2615      5200
 2616              	.LASF24:
 2617 040a 50494F5F 		.ascii	"PIO_OER\000"
 2617      4F455200 
 2618              	.LASF19:
 2619 0412 73697A65 		.ascii	"sizetype\000"
 2619      74797065 
 2619      00
 2620              	.LASF113:
 2621 041b 55415254 		.ascii	"UART_TNPR\000"
 2621      5F544E50 
 2621      5200
 2622              	.LASF170:
 2623 0425 715F636F 		.ascii	"q_counter\000"
 2623      756E7465 
 2623      7200
 2624              	.LASF75:
 2625 042f 50494F5F 		.ascii	"PIO_WPMR\000"
 2625      57504D52 
 2625      00
 2626              	.LASF194:
 2627 0438 73635F6D 		.ascii	"sc_mr\000"
 2627      7200
 2628              	.LASF214:
 2629 043e 6D61696E 		.ascii	"main\000"
 2629      00
 2630              	.LASF112:
 2631 0443 55415254 		.ascii	"UART_RNCR\000"
 2631      5F524E43 
 2631      5200
 2632              	.LASF89:
 2633 044d 50494F5F 		.ascii	"PIO_TCR\000"
 2633      54435200 
 2634              	.LASF103:
 2635 0455 55415254 		.ascii	"UART_SR\000"
 2635      5F535200 
 2636              	.LASF203:
 2637 045d 67657466 		.ascii	"getflags\000"
 2637      6C616773 
 2637      00
ARM GAS  /tmp/ccjNzyJ2.s 			page 51


 2638              	.LASF179:
 2639 0466 696F666C 		.ascii	"ioflags_t\000"
 2639      6167735F 
 2639      7400
 2640              	.LASF212:
 2641 0470 2F686F6D 		.ascii	"/home/david/Desktop/Embebidos/StampRepo\000"
 2641      652F6461 
 2641      7669642F 
 2641      4465736B 
 2641      746F702F 
 2642              	.LASF36:
 2643 0498 50494F5F 		.ascii	"PIO_IER\000"
 2643      49455200 
 2644              	.LASF56:
 2645 04a0 50494F5F 		.ascii	"PIO_PPDSR\000"
 2645      50504453 
 2645      5200
 2646              	.LASF107:
 2647 04aa 55415254 		.ascii	"UART_RPR\000"
 2647      5F525052 
 2647      00
 2648              	.LASF210:
 2649 04b3 474E5520 		.ascii	"GNU C++ 4.9.3 20150529 (release) [ARM/embedded-4_9-"
 2649      432B2B20 
 2649      342E392E 
 2649      33203230 
 2649      31353035 
 2650 04e6 6272616E 		.ascii	"branch revision 227977] -mcpu=cortex-m3 -mno-thumb-"
 2650      63682072 
 2650      65766973 
 2650      696F6E20 
 2650      32323739 
 2651 0519 696E7465 		.ascii	"interwork -mthumb -ggdb -O2 -fomit-frame-pointer -f"
 2651      72776F72 
 2651      6B202D6D 
 2651      7468756D 
 2651      62202D67 
 2652 054c 616C6967 		.ascii	"align-functions=16 -ffunction-sections -fdata-secti"
 2652      6E2D6675 
 2652      6E637469 
 2652      6F6E733D 
 2652      3136202D 
 2653 057f 6F6E7320 		.ascii	"ons -fno-common -fno-rtti\000"
 2653      2D666E6F 
 2653      2D636F6D 
 2653      6D6F6E20 
 2653      2D666E6F 
 2654              	.LASF34:
 2655 0599 50494F5F 		.ascii	"PIO_ODSR\000"
 2655      4F445352 
 2655      00
 2656              	.LASF17:
 2657 05a2 576F5265 		.ascii	"WoReg\000"
 2657      6700
 2658              	.LASF106:
 2659 05a8 55415254 		.ascii	"UART_BRGR\000"
 2659      5F425247 
ARM GAS  /tmp/ccjNzyJ2.s 			page 52


 2659      5200
 2660              	.LASF151:
 2661 05b2 31325468 		.ascii	"12ThreadsQueue\000"
 2661      72656164 
 2661      73517565 
 2661      756500
 2662              	.LASF54:
 2663 05c1 50494F5F 		.ascii	"PIO_PPDDR\000"
 2663      50504444 
 2663      5200
 2664              	.LASF195:
 2665 05cb 53657269 		.ascii	"SerialConfig\000"
 2665      616C436F 
 2665      6E666967 
 2665      00
 2666              	.LASF191:
 2667 05d8 75617274 		.ascii	"uart\000"
 2667      00
 2668              	.LASF205:
 2669 05dd 77615468 		.ascii	"waThread1\000"
 2669      72656164 
 2669      3100
 2670              	.LASF41:
 2671 05e7 50494F5F 		.ascii	"PIO_MDDR\000"
 2671      4D444452 
 2671      00
 2672              	.LASF92:
 2673 05f0 50494F5F 		.ascii	"PIO_TNPR\000"
 2673      544E5052 
 2673      00
 2674              	.LASF122:
 2675 05f9 74726566 		.ascii	"trefs_t\000"
 2675      735F7400 
 2676              	.LASF15:
 2677 0601 75696E74 		.ascii	"uint_fast16_t\000"
 2677      5F666173 
 2677      7431365F 
 2677      7400
 2678              	.LASF133:
 2679 060f 705F7072 		.ascii	"p_prev\000"
 2679      657600
 2680              	.LASF124:
 2681 0616 6D73675F 		.ascii	"msg_t\000"
 2681      7400
 2682              	.LASF70:
 2683 061c 50494F5F 		.ascii	"PIO_FELLSR\000"
 2683      46454C4C 
 2683      535200
 2684              	.LASF123:
 2685 0627 74707269 		.ascii	"tprio_t\000"
 2685      6F5F7400 
 2686              	.LASF174:
 2687 062f 715F7264 		.ascii	"q_rdptr\000"
 2687      70747200 
 2688              	.LASF80:
 2689 0637 50494F5F 		.ascii	"PIO_PCMR\000"
 2689      50434D52 
ARM GAS  /tmp/ccjNzyJ2.s 			page 53


 2689      00
 2690              	.LASF38:
 2691 0640 50494F5F 		.ascii	"PIO_IMR\000"
 2691      494D5200 
 2692              	.LASF13:
 2693 0648 696E7433 		.ascii	"int32_t\000"
 2693      325F7400 
 2694              	.LASF1:
 2695 0650 756E7369 		.ascii	"unsigned char\000"
 2695      676E6564 
 2695      20636861 
 2695      7200
 2696              	.LASF30:
 2697 065e 50494F5F 		.ascii	"PIO_IFSR\000"
 2697      49465352 
 2697      00
 2698              	.LASF147:
 2699 0667 705F6D74 		.ascii	"p_mtxlist\000"
 2699      786C6973 
 2699      7400
 2700              	.LASF2:
 2701 0671 73686F72 		.ascii	"short int\000"
 2701      7420696E 
 2701      7400
 2702              	.LASF139:
 2703 067b 705F7374 		.ascii	"p_state\000"
 2703      61746500 
 2704              	.LASF211:
 2705 0683 6D61696E 		.ascii	"main.cpp\000"
 2705      2E637070 
 2705      00
 2706              	.LASF137:
 2707 068c 705F6F6C 		.ascii	"p_older\000"
 2707      64657200 
 2708              	.LASF29:
 2709 0694 50494F5F 		.ascii	"PIO_IFDR\000"
 2709      49464452 
 2709      00
 2710              	.LASF131:
 2711 069d 65776D61 		.ascii	"ewmask\000"
 2711      736B00
 2712              	.LASF132:
 2713 06a4 705F6E65 		.ascii	"p_next\000"
 2713      787400
 2714              	.LASF33:
 2715 06ab 50494F5F 		.ascii	"PIO_CODR\000"
 2715      434F4452 
 2715      00
 2716              	.LASF140:
 2717 06b4 705F666C 		.ascii	"p_flags\000"
 2717      61677300 
 2718              	.LASF87:
 2719 06bc 50494F5F 		.ascii	"PIO_RCR\000"
 2719      52435200 
 2720              	.LASF111:
 2721 06c4 55415254 		.ascii	"UART_RNPR\000"
 2721      5F524E50 
ARM GAS  /tmp/ccjNzyJ2.s 			page 54


 2721      5200
 2722              	.LASF182:
 2723 06ce 53445F53 		.ascii	"SD_STOP\000"
 2723      544F5000 
 2724              	.LASF127:
 2725 06d6 54687265 		.ascii	"Thread\000"
 2725      616400
 2726              	.LASF55:
 2727 06dd 50494F5F 		.ascii	"PIO_PPDER\000"
 2727      50504445 
 2727      5200
 2728              	.LASF110:
 2729 06e7 55415254 		.ascii	"UART_TCR\000"
 2729      5F544352 
 2729      00
 2730              	.LASF146:
 2731 06f0 705F6570 		.ascii	"p_epending\000"
 2731      656E6469 
 2731      6E6700
 2732              	.LASF181:
 2733 06fb 53445F55 		.ascii	"SD_UNINIT\000"
 2733      4E494E49 
 2733      5400
 2734              	.LASF40:
 2735 0705 50494F5F 		.ascii	"PIO_MDER\000"
 2735      4D444552 
 2735      00
 2736              	.LASF14:
 2737 070e 75696E74 		.ascii	"uint32_t\000"
 2737      33325F74 
 2737      00
 2738              	.LASF71:
 2739 0717 50494F5F 		.ascii	"PIO_REHLSR\000"
 2739      5245484C 
 2739      535200
 2740              	.LASF104:
 2741 0722 55415254 		.ascii	"UART_RHR\000"
 2741      5F524852 
 2741      00
 2742              	.LASF184:
 2743 072b 73647374 		.ascii	"sdstate_t\000"
 2743      6174655F 
 2743      7400
 2744              	.LASF185:
 2745 0735 53657269 		.ascii	"SerialDriver\000"
 2745      616C4472 
 2745      69766572 
 2745      00
 2746              	.LASF99:
 2747 0742 55415254 		.ascii	"UART_MR\000"
 2747      5F4D5200 
 2748              	.LASF8:
 2749 074a 6C6F6E67 		.ascii	"long unsigned int\000"
 2749      20756E73 
 2749      69676E65 
 2749      6420696E 
 2749      7400
ARM GAS  /tmp/ccjNzyJ2.s 			page 55


 2750              	.LASF198:
 2751 075c 72656164 		.ascii	"read\000"
 2751      00
 2752              	.LASF167:
 2753 0761 63686172 		.ascii	"char\000"
 2753      00
 2754              	.LASF63:
 2755 0766 50494F5F 		.ascii	"PIO_AIMDR\000"
 2755      41494D44 
 2755      5200
 2756              	.LASF209:
 2757 0770 73645374 		.ascii	"sdStart\000"
 2757      61727400 
 2758              	.LASF52:
 2759 0778 50494F5F 		.ascii	"PIO_IFSCSR\000"
 2759      49465343 
 2759      535200
 2760              	.LASF97:
 2761 0783 34556172 		.ascii	"4Uart\000"
 2761      7400
 2762              	.LASF160:
 2763 0789 6D5F6E65 		.ascii	"m_next\000"
 2763      787400
 2764              	.LASF126:
 2765 0790 73797374 		.ascii	"systime_t\000"
 2765      696D655F 
 2765      7400
 2766              	.LASF148:
 2767 079a 705F7265 		.ascii	"p_realprio\000"
 2767      616C7072 
 2767      696F00
 2768              	.LASF5:
 2769 07a5 5F5F696E 		.ascii	"__int32_t\000"
 2769      7433325F 
 2769      7400
 2770              	.LASF50:
 2771 07af 50494F5F 		.ascii	"PIO_IFSCDR\000"
 2771      49465343 
 2771      445200
 2772              	.LASF117:
 2773 07ba 55617274 		.ascii	"Uart\000"
 2773      00
 2774              	.LASF193:
 2775 07bf 73635F73 		.ascii	"sc_speed\000"
 2775      70656564 
 2775      00
 2776              	.LASF28:
 2777 07c8 50494F5F 		.ascii	"PIO_IFER\000"
 2777      49464552 
 2777      00
 2778              	.LASF90:
 2779 07d1 50494F5F 		.ascii	"PIO_RNPR\000"
 2779      524E5052 
 2779      00
 2780              	.LASF142:
 2781 07da 705F7469 		.ascii	"p_time\000"
 2781      6D6500
ARM GAS  /tmp/ccjNzyJ2.s 			page 56


 2782              	.LASF101:
 2783 07e1 55415254 		.ascii	"UART_IDR\000"
 2783      5F494452 
 2783      00
 2784              	.LASF155:
 2785 07ea 696E7463 		.ascii	"intctx\000"
 2785      747800
 2786              	.LASF183:
 2787 07f1 53445F52 		.ascii	"SD_READY\000"
 2787      45414459 
 2787      00
 2788              	.LASF88:
 2789 07fa 50494F5F 		.ascii	"PIO_TPR\000"
 2789      54505200 
 2790              	.LASF192:
 2791 0802 31325365 		.ascii	"12SerialConfig\000"
 2791      7269616C 
 2791      436F6E66 
 2791      696700
 2792              	.LASF172:
 2793 0811 715F746F 		.ascii	"q_top\000"
 2793      7000
 2794              	.LASF138:
 2795 0817 705F6E61 		.ascii	"p_name\000"
 2795      6D6500
 2796              	.LASF166:
 2797 081e 65735F6E 		.ascii	"es_next\000"
 2797      65787400 
 2798              	.LASF67:
 2799 0826 50494F5F 		.ascii	"PIO_LSR\000"
 2799      4C535200 
 2800              	.LASF175:
 2801 082e 715F6E6F 		.ascii	"q_notify\000"
 2801      74696679 
 2801      00
 2802              	.LASF93:
 2803 0837 50494F5F 		.ascii	"PIO_TNCR\000"
 2803      544E4352 
 2803      00
 2804              	.LASF145:
 2805 0840 705F6D73 		.ascii	"p_msg\000"
 2805      6700
 2806              	.LASF12:
 2807 0846 75696E74 		.ascii	"uint8_t\000"
 2807      385F7400 
 2808              	.LASF187:
 2809 084e 666C6167 		.ascii	"flags\000"
 2809      7300
 2810              	.LASF109:
 2811 0854 55415254 		.ascii	"UART_TPR\000"
 2811      5F545052 
 2811      00
 2812              	.LASF60:
 2813 085d 50494F5F 		.ascii	"PIO_OWSR\000"
 2813      4F575352 
 2813      00
 2814              	.LASF161:
ARM GAS  /tmp/ccjNzyJ2.s 			page 57


 2815 0866 4576656E 		.ascii	"EventListener\000"
 2815      744C6973 
 2815      74656E65 
 2815      7200
 2816              	.LASF130:
 2817 0874 77746F62 		.ascii	"wtobjp\000"
 2817      6A7000
 2818              	.LASF163:
 2819 087b 656C5F6C 		.ascii	"el_listener\000"
 2819      69737465 
 2819      6E657200 
 2820              	.LASF51:
 2821 0887 50494F5F 		.ascii	"PIO_IFSCER\000"
 2821      49465343 
 2821      455200
 2822              	.LASF59:
 2823 0892 50494F5F 		.ascii	"PIO_OWDR\000"
 2823      4F574452 
 2823      00
 2824              	.LASF32:
 2825 089b 50494F5F 		.ascii	"PIO_SODR\000"
 2825      534F4452 
 2825      00
 2826              	.LASF200:
 2827 08a4 67657477 		.ascii	"getwouldblock\000"
 2827      6F756C64 
 2827      626C6F63 
 2827      6B00
 2828              	.LASF100:
 2829 08b2 55415254 		.ascii	"UART_IER\000"
 2829      5F494552 
 2829      00
 2830              	.LASF159:
 2831 08bb 6D5F6F77 		.ascii	"m_owner\000"
 2831      6E657200 
 2832              	.LASF135:
 2833 08c3 705F6374 		.ascii	"p_ctx\000"
 2833      7800
 2834              	.LASF143:
 2835 08c9 705F7761 		.ascii	"p_waiting\000"
 2835      6974696E 
 2835      6700
 2836              	.LASF215:
 2837 08d3 63684951 		.ascii	"chIQGetTimeout\000"
 2837      47657454 
 2837      696D656F 
 2837      757400
 2838              		.ident	"GCC: (GNU Tools for ARM Embedded Processors) 4.9.3 20150529 (release) [ARM/embedded-4_9-br
ARM GAS  /tmp/ccjNzyJ2.s 			page 58


DEFINED SYMBOLS
                            *ABS*:00000000 main.cpp
     /tmp/ccjNzyJ2.s:19     .text.startup.main:00000000 $t
     /tmp/ccjNzyJ2.s:25     .text.startup.main:00000000 main
     /tmp/ccjNzyJ2.s:94     .text.startup.main:00000054 $d
     .ARM.exidx.text.startup.main:00000000 $d
                     .debug_frame:00000010 $d

UNDEFINED SYMBOLS
halInit
chSysInit
sdStart
chThdSleep
chIQGetTimeout
SD2
__aeabi_unwind_cpp_pr0
